#if defined(__aarch64__) && defined(ENABLE_PRIMJS_SNAPSHOT) && !defined(ENABLE_QUICKJS_DEBUGGER)
.text
.align 2
.global __exception_handler_entry
__exception_handler_entry:
.word 0xf9401268
.word 0xf9407109
.word 0xb940e903
cbz w3, Label_3
.word 0xaa0903f9
.word 0xd2800002
.word 0xd2800003
.word 0xd2800005
.word 0xd2800006
.word 0xaa1603e4
.word 0xaa0903e1
.word 0xaa1303e0
.word 0xa9bf7ffe
bl _build_backtrace
.word 0xa8c17ffe
.word 0xaa1903e9
Label_3:
.word 0xaa0903e1
.word 0xaa1303e0
.word 0xa9bf7ffe
bl _JS_IsUncatchableError_GC
.word 0xa8c17ffe
cbnz x0, Label_1
.word 0xf85803bb
Label_4:
.word 0xeb1b029f
b.EQ Label_1
.word 0xf85f8e99
.word 0xd2801ee8
.word 0xf2ffffe8
.word 0xea080328
.word 0xf101091f
b.NE Label_4
.word 0xd350ff39
cbnz x25, Label_5
.word 0xf85f8e88
.word 0xf85f8288
.word 0xb24003e2
.word 0xaa0803e1
.word 0xaa1303e0
.word 0xa9bf7ffe
bl _JS_IteratorClose
.word 0xa8c17ffe
b Label_4
Label_5:
.word 0xf85e83ac
.word 0xf9401268
.word 0xf9407109
.word 0xf8008689
.word 0xb27f03e9
.word 0xf9007109
.word 0xf9401988
.word 0xf9400508
.word 0x8b190116
.word 0x38400ec8
.word 0x91000108
.word 0xf8685aa9
.word 0xd61f0120
Label_1:
.word 0xf85e83ac
.word 0xf9401988
.word 0x39401908
.word 0x121c0508
.word 0xf100011f
b.NE Label_6
.word 0xf85b83b1
.word 0xf9401269
.word 0xf940022a
.word 0xf900792a
.word 0xaa1103e1
.word 0xaa1303e0
.word 0xa9bf7ffe
bl _prim_close_var_refs_gc
.word 0xa8c17ffe
.word 0xf85c03bb
Label_9:
.word 0xeb1b029f
b.EQ Label_8
.word 0xf85f8e88
b Label_9
Label_8:
.word 0xf94007be
.cfi_startproc
.word 0x910003bf
.word 0xa8c17bfd
.cfi_def_cfa x29,  16
.cfi_offset x29, -16
.cfi_offset x30, -8
.cfi_endproc
b Label_7
Label_6:
.word 0xf85b83b1
.word 0xf9001a36
.word 0xf9002234
.word 0xf9400228
.word 0xf9401269
.word 0xf9007928
.word 0xf94007be
.cfi_startproc
.word 0x910003bf
.word 0xa8c17bfd
.cfi_def_cfa x29,  16
.cfi_offset x29, -16
.cfi_offset x30, -8
.cfi_endproc
Label_7:
.word 0xd2801040
.word 0xd65f03c0
.word 0xd4bbd5c1
.word 0xd4bbd5c1
.global _return_entry_0_1
_return_entry_0_1:
.cfi_startproc
.cfi_def_cfa x29,  16
.cfi_offset x29, -16
.cfi_offset x30, -8
.word 0xf85f03b4
.word 0xf85e03ae
.word 0x910005d8
.word 0xea18031f
b.LE Label_10
Label_11:
.word 0xd1002294
.word 0xd1000718
cbnz x24, Label_11
Label_10:
.word 0xf85983b6
.word 0xf85c83ba
.word 0xa97ae3b7
.word 0xf85a03bc
.word 0xf85903a9
.word 0x9100013f
.word 0xf102081f
b.NE Label_12
.word 0x910006d6
.word 0xf85b83b1
.word 0xf9002234
b __exception_handler_entry
Label_12:
.word 0x38401ec8
.word 0x91000108
.word 0xf8685aa9
.word 0xd61f0120
.cfi_endproc
.global _return_entry_1_1
_return_entry_1_1:
.cfi_startproc
.cfi_def_cfa x29,  16
.cfi_offset x29, -16
.cfi_offset x30, -8
.word 0xf85f03b4
.word 0xf85e03ae
.word 0x910005d8
.word 0xea18031f
b.LE Label_13
Label_14:
.word 0xd1002294
.word 0xd1000718
cbnz x24, Label_14
Label_13:
.word 0xf85983b6
.word 0xf85c83ba
.word 0xa97ae3b7
.word 0xf85a03bc
.word 0xf85903a9
.word 0x9100013f
.word 0xf102081f
b.NE Label_15
.word 0x910006d6
.word 0xf85b83b1
.word 0xf9002234
b __exception_handler_entry
Label_15:
.word 0x38401ec8
.word 0x9103c908
.word 0xf8685aa9
.word 0xd61f0120
.cfi_endproc
.global _return_entry_2_1
_return_entry_2_1:
.cfi_startproc
.cfi_def_cfa x29,  16
.cfi_offset x29, -16
.cfi_offset x30, -8
.word 0xf85f03b4
.word 0xf85e03ae
.word 0x910005d8
.word 0xea18031f
b.LE Label_16
Label_17:
.word 0xd1002294
.word 0xd1000718
cbnz x24, Label_17
Label_16:
.word 0xf85983b6
.word 0xf85c83ba
.word 0xa97ae3b7
.word 0xf85a03bc
.word 0xf85903a9
.word 0x9100013f
.word 0xf102081f
b.NE Label_18
.word 0x910006d6
.word 0xf85b83b1
.word 0xf9002234
b __exception_handler_entry
Label_18:
.word 0x38401ec8
.word 0x91079108
.word 0xf8685aa9
.word 0xd61f0120
.cfi_endproc
.global _return_entry_0_2
_return_entry_0_2:
.cfi_startproc
.cfi_def_cfa x29,  16
.cfi_offset x29, -16
.cfi_offset x30, -8
.word 0xf85f03b4
.word 0xf85e03ae
.word 0x910005d8
.word 0xea18031f
b.LE Label_19
Label_20:
.word 0xd1002294
.word 0xd1000718
cbnz x24, Label_20
Label_19:
.word 0xf85983b6
.word 0xf85c83ba
.word 0xa97ae3b7
.word 0xf85a03bc
.word 0xf85903a9
.word 0x9100013f
.word 0xf102081f
b.NE Label_21
.word 0x91000ad6
.word 0xf85b83b1
.word 0xf9002234
b __exception_handler_entry
Label_21:
.word 0x38402ec8
.word 0x91000108
.word 0xf8685aa9
.word 0xd61f0120
.cfi_endproc
.global _return_entry_1_2
_return_entry_1_2:
.cfi_startproc
.cfi_def_cfa x29,  16
.cfi_offset x29, -16
.cfi_offset x30, -8
.word 0xf85f03b4
.word 0xf85e03ae
.word 0x910005d8
.word 0xea18031f
b.LE Label_22
Label_23:
.word 0xd1002294
.word 0xd1000718
cbnz x24, Label_23
Label_22:
.word 0xf85983b6
.word 0xf85c83ba
.word 0xa97ae3b7
.word 0xf85a03bc
.word 0xf85903a9
.word 0x9100013f
.word 0xf102081f
b.NE Label_24
.word 0x91000ad6
.word 0xf85b83b1
.word 0xf9002234
b __exception_handler_entry
Label_24:
.word 0x38402ec8
.word 0x9103c908
.word 0xf8685aa9
.word 0xd61f0120
.cfi_endproc
.global _return_entry_2_2
_return_entry_2_2:
.cfi_startproc
.cfi_def_cfa x29,  16
.cfi_offset x29, -16
.cfi_offset x30, -8
.word 0xf85f03b4
.word 0xf85e03ae
.word 0x910005d8
.word 0xea18031f
b.LE Label_25
Label_26:
.word 0xd1002294
.word 0xd1000718
cbnz x24, Label_26
Label_25:
.word 0xf85983b6
.word 0xf85c83ba
.word 0xa97ae3b7
.word 0xf85a03bc
.word 0xf85903a9
.word 0x9100013f
.word 0xf102081f
b.NE Label_27
.word 0x91000ad6
.word 0xf85b83b1
.word 0xf9002234
b __exception_handler_entry
Label_27:
.word 0x38402ec8
.word 0x91079108
.word 0xf8685aa9
.word 0xd61f0120
.cfi_endproc
.global _return_entry_0_3
_return_entry_0_3:
.cfi_startproc
.cfi_def_cfa x29,  16
.cfi_offset x29, -16
.cfi_offset x30, -8
.word 0xf85f03b4
.word 0xf85e03ae
.word 0x910005d8
.word 0xea18031f
b.LE Label_28
Label_29:
.word 0xd1002294
.word 0xd1000718
cbnz x24, Label_29
Label_28:
.word 0xf85983b6
.word 0xf85c83ba
.word 0xa97ae3b7
.word 0xf85a03bc
.word 0xf85903a9
.word 0x9100013f
.word 0xf102081f
b.NE Label_30
.word 0x91000ed6
.word 0xf85b83b1
.word 0xf9002234
b __exception_handler_entry
Label_30:
.word 0x38403ec8
.word 0x91000108
.word 0xf8685aa9
.word 0xd61f0120
.cfi_endproc
.global _return_entry_1_3
_return_entry_1_3:
.cfi_startproc
.cfi_def_cfa x29,  16
.cfi_offset x29, -16
.cfi_offset x30, -8
.word 0xf85f03b4
.word 0xf85e03ae
.word 0x910005d8
.word 0xea18031f
b.LE Label_31
Label_32:
.word 0xd1002294
.word 0xd1000718
cbnz x24, Label_32
Label_31:
.word 0xf85983b6
.word 0xf85c83ba
.word 0xa97ae3b7
.word 0xf85a03bc
.word 0xf85903a9
.word 0x9100013f
.word 0xf102081f
b.NE Label_33
.word 0x91000ed6
.word 0xf85b83b1
.word 0xf9002234
b __exception_handler_entry
Label_33:
.word 0x38403ec8
.word 0x9103c908
.word 0xf8685aa9
.word 0xd61f0120
.cfi_endproc
.global _return_entry_2_3
_return_entry_2_3:
.cfi_startproc
.cfi_def_cfa x29,  16
.cfi_offset x29, -16
.cfi_offset x30, -8
.word 0xf85f03b4
.word 0xf85e03ae
.word 0x910005d8
.word 0xea18031f
b.LE Label_34
Label_35:
.word 0xd1002294
.word 0xd1000718
cbnz x24, Label_35
Label_34:
.word 0xf85983b6
.word 0xf85c83ba
.word 0xa97ae3b7
.word 0xf85a03bc
.word 0xf85903a9
.word 0x9100013f
.word 0xf102081f
b.NE Label_36
.word 0x91000ed6
.word 0xf85b83b1
.word 0xf9002234
b __exception_handler_entry
Label_36:
.word 0x38403ec8
.word 0x91079108
.word 0xf8685aa9
.word 0xd61f0120
.cfi_endproc
.global _normal_entry
_normal_entry:
.cfi_startproc
.word 0xd10283ff
.word 0xf9401983
.word 0x79405062
.word 0x79405463
.word 0xeb0201df
b.LT Label_38
.word 0x721f00df
b.NE Label_38
.word 0xd2800008
b Label_37
Label_38:
.word 0xaa0203e8
Label_37:
.word 0xd10183f4
.word 0xa9097bfd
.cfi_def_cfa x29,  16
.cfi_offset x29, -16
.cfi_offset x30, -8
.word 0xd10183f1
.word 0xd2800001
.word 0xf9401989
.word 0x79405d29
.word 0xb294c29
.word 0xb284d29
.word 0xb234d29
.word 0x11008129
.word 0xa9bf3fec
.word 0xa9bf7bee
.word 0xa9bf47ed
.word 0xa9bf27e8
.word 0xa9bf0fe2
.word 0xaa0903e1
.word 0xaa1303e0
.word 0xa9bf7ffe
bl _js_check_stack_overflow
.word 0xa8c17ffe
.word 0xa8c10fe2
.word 0xa8c127e8
.word 0xa8c147ed
.word 0xa8c17bee
.word 0xa8c13fec
cbnz x0, Label_39
.word 0xcb090294
.word 0x927cee94
b Label_40
Label_39:
.word 0xa9bf7bee
.word 0xaa1303e0
.word 0xa9bf7ffe
bl _JS_ThrowStackOverflow_GC
.word 0xa8c17ffe
.word 0xa8c17bee
.word 0xd65f03c0
Label_40:
.word 0x910243fd
.word 0x9100029f
.word 0xb9003a2e
.word 0xaa1703fb
cbz x8, Label_43
.word 0xeb0201df
.word 0xaa0e03eb
b.LE Label_44
.word 0xaa0203eb
Label_44:
.word 0xd2800009
Label_46:
.word 0xeb0b013f
b.EQ Label_45
.word 0xf8697aea
.word 0xf8297a8a
.word 0x11000529
b Label_46
Label_45:
Label_48:
.word 0xeb02013f
b.EQ Label_47
.word 0xd280024a
.word 0xf8297a8a
.word 0x11000529
b Label_48
Label_47:
.word 0xaa1403f7
.word 0xb9003a22
Label_43:
.word 0x8b284e98
.word 0xaa1403f0
.word 0x8b234f14
.word 0xaa1803e9
.word 0xea03007f
b.LE Label_49
Label_50:
.word 0xd280024a
.word 0xf800852a
.word 0xd1000463
cbnz x3, Label_50
Label_49:
.word 0xf9401988
.word 0xf9400516
.word 0xa9386fb4
.word 0xa9395bb0
.word 0xa93e33ae
.word 0xf940191a
.word 0xf9401d9c
.word 0xa93c6bb0
.word 0xa93f37bf
.word 0xa93d67af
.word 0xa93b7fb8
.word 0xa93a5fbc
.word 0xf81e03ae
.word 0xa93b47b8
.word 0x39401509
.word 0xb9003e29
.word 0xf900062c
.word 0xf9002a3f
.word 0x79405509
.word 0xb9403a28
.word 0xb090109
.word 0xb9005a29
.word 0xa9016237
.word 0x91008229
.word 0xa9002529
.word 0xf9002234
.word 0xf9401269
.word 0xf940792a
.word 0xf900022a
.word 0xf9007931
.word 0x38400ec8
.word 0x91000108
.word 0xf8685aa9
.word 0xd63f0120
.word 0xd2802460
.cfi_endproc
.global _native_entry
_native_entry:
.cfi_startproc
.cfi_def_cfa x29,  16
.cfi_offset x29, -16
.cfi_offset x30, -8
.word 0xaa1303e0
.word 0xaa0c03e1
.word 0xaa1903e2
.word 0xaa0e03e3
.word 0xf9401269
.word 0x79400d88
.word 0xf9402929
.word 0xd280050a
.word 0x9b0a2509
.word 0xf9400d28
.word 0xf100011f
b.EQ Label_51
.word 0xaa0603e5
.word 0xaa1703e4
.word 0xd61f0100
Label_51:
.word 0xaa1303e0
b _JS_ThrowTypeErrorNotFunction
.cfi_endproc
.global _async_entry
_async_entry:
.word 0xaa1703fb
.word 0x927eb58b
.word 0x91004171
.word 0xf9400628
.word 0xf9401909
.word 0xf9401d1c
.word 0xf9400a37
.word 0xaa1703f0
.word 0xf9400e38
.word 0xf9402234
.word 0x79405529
.word 0x8b294f0a
.word 0xf9002634
.word 0xf900223f
.word 0xf9401a36
.word 0xf9401268
.word 0xf9407909
.word 0xf9000229
.word 0xf9007911
.word 0xd10283ff
.cfi_startproc
.word 0xa9097bfd
.word 0x910243fd
.cfi_def_cfa x29,  16
.cfi_offset x29, -16
.cfi_offset x30, -8
.word 0x910003e8
.word 0xa9395ba8
.word 0xa9386faa
.word 0xf9400628
.word 0xf9401909
.word 0xa93e23ae
.word 0xf940193a
.word 0xf9401d1c
.word 0xa93c6bb0
.word 0xa93f37bf
.word 0xa93d67af
.word 0xa93b7fb8
.word 0xa93a5fbc
.word 0xf81e03ae
.word 0xa93b47b8
.word 0xb9400d68
.word 0xf100011f
b.EQ Label_52
b __exception_handler_entry
Label_52:
.word 0x38400ec8
.word 0x91000108
.word 0xf8685aa9
.word 0xd63f0120
.word 0xd2802460
.cfi_endproc
.global __dispatch_table
__dispatch_table:
.global _dispatch_table_0_1
_dispatch_table_0_1:
.word 0xb84012c0
.word 0xb24f3800
.word 0x38405ec8
.word 0x9103c908
.word 0xf8685aa9
.word 0xd61f0120
.global _dispatch_table_1_1
_dispatch_table_1_1:
.word 0xb84012c1
.word 0xb24f3821
.word 0x38405ec8
.word 0x91079108
.word 0xf8685aa9
.word 0xd61f0120
.global _dispatch_table_2_1
_dispatch_table_2_1:
.word 0xf8008680
.word 0xaa0103e0
.word 0xb84012c1
.word 0xb24f3821
.word 0x38405ec8
.word 0x91079108
.word 0xf8685aa9
.word 0xd61f0120
.global _dispatch_table_0_2
_dispatch_table_0_2:
.word 0xb84012c0
.word 0xf8607b40
.word 0x38405ec8
.word 0x9103c908
.word 0xf8685aa9
.word 0xd61f0120
.global _dispatch_table_1_2
_dispatch_table_1_2:
.word 0xb84012c1
.word 0xf8617b41
.word 0x38405ec8
.word 0x91079108
.word 0xf8685aa9
.word 0xd61f0120
.global _dispatch_table_2_2
_dispatch_table_2_2:
.word 0xf8008680
.word 0xaa0103e0
.word 0xb84012c1
.word 0xf8617b41
.word 0x38405ec8
.word 0x91079108
.word 0xf8685aa9
.word 0xd61f0120
.global _dispatch_table_0_3
_dispatch_table_0_3:
.word 0xb84012c1
.word 0xf8617b41
.word 0xf85b83b1
.word 0xf8008681
.word 0xf9002234
.word 0xaa1103e3
.word 0xaa1c03e2
.word 0xaa1303e0
.word 0xa9bf7ffe
bl _js_closure_gc
.word 0xa8c17ffe
.word 0xf102081f
b.NE Label_55
.word 0xd1002294
.word 0x910016d6
.word 0xf85b83b1
.word 0xf9002234
b __exception_handler_entry
Label_55:
.word 0xd1002294
.word 0x38405ec8
.word 0x9103c908
.word 0xf8685aa9
.word 0xd61f0120
.global _dispatch_table_1_3
_dispatch_table_1_3:
.word 0xb84012c1
.word 0xf8617b41
.word 0xf85b83b1
.word 0xaa0003f9
.word 0xf8008681
.word 0xf8008680
.word 0xf85b83b1
.word 0xf9002234
.word 0xaa1103e3
.word 0xaa1c03e2
.word 0xaa1303e0
.word 0xa9bf7ffe
bl _js_closure_gc
.word 0xa8c17ffe
.word 0xf102081f
b.NE Label_61
.word 0xd1002294
.word 0xd1002294
.word 0xf8008699
.word 0x910016d6
.word 0xf85b83b1
.word 0xf9002234
b __exception_handler_entry
Label_61:
.word 0xd1002294
.word 0xd1002294
.word 0xaa0003e1
.word 0xaa1903e0
.word 0x38405ec8
.word 0x91079108
.word 0xf8685aa9
.word 0xd61f0120
.global _dispatch_table_2_3
_dispatch_table_2_3:
.word 0xf8008680
.word 0xf85b83b1
.word 0xaa0103f9
.word 0xb84012c1
.word 0xf8617b41
.word 0xf8008681
.word 0xf8008699
.word 0xf9002234
.word 0xaa1103e3
.word 0xaa1c03e2
.word 0xaa1303e0
.word 0xa9bf7ffe
bl _js_closure_gc
.word 0xa8c17ffe
.word 0xf102081f
b.NE Label_67
.word 0xd1002294
.word 0xd1002294
.word 0xf8008699
.word 0x910016d6
.word 0xf85b83b1
.word 0xf9002234
b __exception_handler_entry
Label_67:
.word 0xd1002294
.word 0xd1002294
.word 0xaa0003e1
.word 0xaa1903e0
.word 0x38405ec8
.word 0x91079108
.word 0xf8685aa9
.word 0xd61f0120
.global _dispatch_table_0_4
_dispatch_table_0_4:
.word 0xb84012c1
.word 0xd2800002
.word 0xf85b83b1
.word 0xf9002234
.word 0xaa1303e0
.word 0xa9bf7ffe
bl ___JS_AtomToValue_GC
.word 0xa8c17ffe
.word 0x38405ec8
.word 0x9103c908
.word 0xf8685aa9
.word 0xd61f0120
.global _dispatch_table_1_4
_dispatch_table_1_4:
.word 0xd2800002
.word 0xaa0003f9
.word 0xb84012c1
.word 0xf8008680
.word 0xf85b83b1
.word 0xf9002234
.word 0xaa1303e0
.word 0xa9bf7ffe
bl ___JS_AtomToValue_GC
.word 0xa8c17ffe
.word 0xd1002294
.word 0xf85b83b1
.word 0xf9002234
.word 0xaa0003e1
.word 0xaa1903e0
.word 0x38405ec8
.word 0x91079108
.word 0xf8685aa9
.word 0xd61f0120
.global _dispatch_table_2_4
_dispatch_table_2_4:
.word 0xf8008680
.word 0xd2800002
.word 0xaa0103f9
.word 0xb84012c1
.word 0xf8008681
.word 0xf85b83b1
.word 0xf9002234
.word 0xaa1303e0
.word 0xa9bf7ffe
bl ___JS_AtomToValue_GC
.word 0xa8c17ffe
.word 0xd1002294
.word 0xf85b83b1
.word 0xf9002234
.word 0xaa0003e1
.word 0xaa1903e0
.word 0x38405ec8
.word 0x91079108
.word 0xf8685aa9
.word 0xd61f0120
.global _dispatch_table_0_5
_dispatch_table_0_5:
.word 0xb84012c1
.word 0xb27e03e2
.word 0xf85b83b1
.word 0xf9002234
.word 0xaa1303e0
.word 0xa9bf7ffe
bl _JS_NewSymbolFromAtom_GC
.word 0xa8c17ffe
.word 0xf102081f
b.NE Label_70
.word 0x910016d6
.word 0xf85b83b1
.word 0xf9002234
b __exception_handler_entry
Label_70:
.word 0x38405ec8
.word 0x9103c908
.word 0xf8685aa9
.word 0xd61f0120
.global _dispatch_table_1_5
_dispatch_table_1_5:
.word 0xb84012c1
.word 0xb27e03e2
.word 0xaa0003f9
.word 0xf8008680
.word 0xf85b83b1
.word 0xf9002234
.word 0xaa1303e0
.word 0xa9bf7ffe
bl _JS_NewSymbolFromAtom_GC
.word 0xa8c17ffe
.word 0xf102081f
b.NE Label_71
.word 0xd1002294
.word 0xf8008699
.word 0x910016d6
.word 0xf85b83b1
.word 0xf9002234
b __exception_handler_entry
Label_71:
.word 0xd1002294
.word 0xaa0003e1
.word 0xaa1903e0
.word 0x38405ec8
.word 0x91079108
.word 0xf8685aa9
.word 0xd61f0120
.global _dispatch_table_2_5
_dispatch_table_2_5:
.word 0xf8008680
.word 0xf8008681
.word 0xb27e03e2
.word 0xaa0103f9
.word 0xb84012c1
.word 0xf85b83b1
.word 0xf9002234
.word 0xaa1303e0
.word 0xa9bf7ffe
bl _JS_NewSymbolFromAtom_GC
.word 0xa8c17ffe
.word 0xf102081f
b.NE Label_74
.word 0xd1002294
.word 0xf8008699
.word 0x910016d6
.word 0xf85b83b1
.word 0xf9002234
b __exception_handler_entry
Label_74:
.word 0xd1002294
.word 0xaa0003e1
.word 0xaa1903e0
.word 0x38405ec8
.word 0x91079108
.word 0xf8685aa9
.word 0xd61f0120
.global _dispatch_table_0_6
_dispatch_table_0_6:
.word 0xd2800240
.word 0x38401ec8
.word 0x9103c908
.word 0xf8685aa9
.word 0xd61f0120
.global _dispatch_table_1_6
_dispatch_table_1_6:
.word 0xd2800241
.word 0x38401ec8
.word 0x91079108
.word 0xf8685aa9
.word 0xd61f0120
.global _dispatch_table_2_6
_dispatch_table_2_6:
.word 0xf8008680
.word 0xaa0103e0
.word 0xd2800241
.word 0x38401ec8
.word 0x91079108
.word 0xf8685aa9
.word 0xd61f0120
.global _dispatch_table_0_7
_dispatch_table_0_7:
.word 0xb27f03e0
.word 0x38401ec8
.word 0x9103c908
.word 0xf8685aa9
.word 0xd61f0120
.global _dispatch_table_1_7
_dispatch_table_1_7:
.word 0xb27f03e1
.word 0x38401ec8
.word 0x91079108
.word 0xf8685aa9
.word 0xd61f0120
.global _dispatch_table_2_7
_dispatch_table_2_7:
.word 0xf8008680
.word 0xaa0103e0
.word 0xb27f03e1
.word 0x38401ec8
.word 0x91079108
.word 0xf8685aa9
.word 0xd61f0120
.global _dispatch_table_1_8
_dispatch_table_1_8:
.word 0xf8008680
.word 0xf85b83b1
.word 0xf9002234
.word 0xf85e83ac
.word 0xf9401988
.word 0x39401508
.word 0x7200011f
b.NE Label_76
.word 0xd2800049
.word 0xf2ffffe9
.word 0xf85d83b9
.word 0xea09033f
b.NE Label_75
Label_76:
.word 0xf85d83b9
.word 0xaa1903e0
b Label_77
Label_75:
.word 0xf1000b3f
b.EQ Label_78
.word 0xf1004b3f
b.NE Label_79
Label_78:
.word 0xf9406e60
b Label_80
Label_79:
.word 0xf85b83b1
.word 0xf9002234
.word 0xaa1903e1
.word 0xaa1303e0
.word 0xa9bf7ffe
bl _JS_ToObject_GC
.word 0xa8c17ffe
.word 0xf102081f
b.NE Label_81
.word 0x910006d6
.word 0xf85b83b1
.word 0xf9002234
b __exception_handler_entry
Label_81:
Label_80:
.word 0x38401ec8
.word 0x9103c908
.word 0xf8685aa9
.word 0xd61f0120
Label_77:
.word 0x38401ec8
.word 0x9103c908
.word 0xf8685aa9
.word 0xd61f0120
.global _dispatch_table_2_8
_dispatch_table_2_8:
.word 0xa8810680
.word 0xf85b83b1
.word 0xf9002234
.global _dispatch_table_0_8
_dispatch_table_0_8:
.word 0xf85e83ac
.word 0xf9401988
.word 0x39401508
.word 0x7200011f
b.NE Label_83
.word 0xd2800049
.word 0xf2ffffe9
.word 0xf85d83b9
.word 0xea09033f
b.NE Label_82
Label_83:
.word 0xf85d83b9
.word 0xaa1903e0
b Label_84
Label_82:
.word 0xf1000b3f
b.EQ Label_85
.word 0xf1004b3f
b.NE Label_86
Label_85:
.word 0xf9406e60
b Label_87
Label_86:
.word 0xf85b83b1
.word 0xf9002234
.word 0xaa1903e1
.word 0xaa1303e0
.word 0xa9bf7ffe
bl _JS_ToObject_GC
.word 0xa8c17ffe
.word 0xf102081f
b.NE Label_88
.word 0x910006d6
.word 0xf85b83b1
.word 0xf9002234
b __exception_handler_entry
Label_88:
Label_87:
.word 0x38401ec8
.word 0x9103c908
.word 0xf8685aa9
.word 0xd61f0120
Label_84:
.word 0x38401ec8
.word 0x9103c908
.word 0xf8685aa9
.word 0xd61f0120
.global _dispatch_table_0_9
_dispatch_table_0_9:
.word 0xb27f07e0
.word 0x38401ec8
.word 0x9103c908
.word 0xf8685aa9
.word 0xd61f0120
.global _dispatch_table_1_9
_dispatch_table_1_9:
.word 0xb27f07e1
.word 0x38401ec8
.word 0x91079108
.word 0xf8685aa9
.word 0xd61f0120
.global _dispatch_table_2_9
_dispatch_table_2_9:
.word 0xf8008680
.word 0xaa0103e0
.word 0xb27f07e1
.word 0x38401ec8
.word 0x91079108
.word 0xf8685aa9
.word 0xd61f0120
.global _dispatch_table_0_10
_dispatch_table_0_10:
.word 0xb2400be0
.word 0x38401ec8
.word 0x9103c908
.word 0xf8685aa9
.word 0xd61f0120
.global _dispatch_table_1_10
_dispatch_table_1_10:
.word 0xb2400be1
.word 0x38401ec8
.word 0x91079108
.word 0xf8685aa9
.word 0xd61f0120
.global _dispatch_table_2_10
_dispatch_table_2_10:
.word 0xf8008680
.word 0xaa0103e0
.word 0xb2400be1
.word 0x38401ec8
.word 0x91079108
.word 0xf8685aa9
.word 0xd61f0120
.global _dispatch_table_0_11
_dispatch_table_0_11:
.word 0xf85b83b1
.word 0xf9002234
.word 0xaa1303e0
.word 0xa9bf7ffe
bl _PRIM_JS_NewObject_GC
.word 0xa8c17ffe
.word 0xf102081f
b.NE Label_89
.word 0x910006d6
.word 0xf85b83b1
.word 0xf9002234
b __exception_handler_entry
Label_89:
.word 0x38401ec8
.word 0x9103c908
.word 0xf8685aa9
.word 0xd61f0120
.global _dispatch_table_1_11
_dispatch_table_1_11:
.word 0xf8008680
.word 0xf85b83b1
.word 0xf9002234
.word 0xaa1303e0
.word 0xa9bf7ffe
bl _PRIM_JS_NewObject_GC
.word 0xa8c17ffe
.word 0xf102081f
b.NE Label_90
.word 0x910006d6
.word 0xf85b83b1
.word 0xf9002234
b __exception_handler_entry
Label_90:
.word 0xaa0003e1
.word 0xf85f8e80
.word 0x38401ec8
.word 0x91079108
.word 0xf8685aa9
.word 0xd61f0120
.global _dispatch_table_2_11
_dispatch_table_2_11:
.word 0xa8810680
.word 0xf85b83b1
.word 0xf9002234
.word 0xaa1303e0
.word 0xa9bf7ffe
bl _PRIM_JS_NewObject_GC
.word 0xa8c17ffe
.word 0xf102081f
b.NE Label_91
.word 0x910006d6
.word 0xf85b83b1
.word 0xf9002234
b __exception_handler_entry
Label_91:
.word 0xaa0003e1
.word 0xf85f8e80
.word 0x38401ec8
.word 0x91079108
.word 0xf8685aa9
.word 0xd61f0120
.global _dispatch_table_1_12
_dispatch_table_1_12:
.word 0xf8008680
.word 0xf85b83b1
.word 0xf9002234
.word 0x394006c8
.word 0xf85e03ae
.word 0xf100011f
b.NE Label_92
.word 0xf85883a2
.word 0xf85b83b1
.word 0xf9002234
.word 0xaa0e03e1
.word 0xaa1303e0
.word 0xa9bf7ffe
bl _js_build_arguments_gc
.word 0xa8c17ffe
.word 0xf102081f
b.NE Label_99
.word 0x91000ad6
.word 0xf85b83b1
.word 0xf9002234
b __exception_handler_entry
Label_99:
b Label_98
Label_92:
.word 0xf100051f
b.NE Label_93
.word 0xf85e83ac
.word 0xf9401989
.word 0x79405129
.word 0xeb0e013f
b.LT Label_101
Label_100:
.word 0xaa0e03e9
Label_101:
.word 0xf85b83b1
.word 0xf85883a2
.word 0xf9002234
.word 0xaa0903e4
.word 0xaa1103e3
.word 0xaa0e03e1
.word 0xaa1303e0
.word 0xa9bf7ffe
bl _js_build_mapped_arguments_gc
.word 0xa8c17ffe
.word 0xf102081f
b.NE Label_102
.word 0x91000ad6
.word 0xf85b83b1
.word 0xf9002234
b __exception_handler_entry
Label_102:
b Label_98
Label_93:
.word 0xf100091f
b.NE Label_94
.word 0xf85e83a0
b Label_98
Label_94:
.word 0xf1000d1f
b.NE Label_95
.word 0xf85d03af
.word 0xaa0f03e0
b Label_98
Label_95:
.word 0xf100111f
b.NE Label_96
.word 0xf85e83ac
.word 0xf9402189
cbz x9, Label_103
.word 0xaa0903e0
b Label_104
Label_103:
.word 0xd2800240
Label_104:
b Label_98
Label_96:
.word 0xf100151f
b.NE Label_97
.word 0xb27f03e9
.word 0xf85b83b1
.word 0xf9002234
.word 0xaa0903e1
.word 0xaa1303e0
.word 0xa9bf7ffe
bl _LEPUS_NewObjectProto
.word 0xa8c17ffe
.word 0xf102081f
b.NE Label_105
.word 0x91000ad6
.word 0xf85b83b1
.word 0xf9002234
b __exception_handler_entry
Label_105:
b Label_98
Label_97:
Label_98:
.word 0x38402ec8
.word 0x9103c908
.word 0xf8685aa9
.word 0xd61f0120
.global _dispatch_table_2_12
_dispatch_table_2_12:
.word 0xa8810680
.word 0xf85b83b1
.word 0xf9002234
.global _dispatch_table_0_12
_dispatch_table_0_12:
.word 0x394006c8
.word 0xf85e03ae
.word 0xf100011f
b.NE Label_106
.word 0xf85883a2
.word 0xf85b83b1
.word 0xf9002234
.word 0xaa0e03e1
.word 0xaa1303e0
.word 0xa9bf7ffe
bl _js_build_arguments_gc
.word 0xa8c17ffe
.word 0xf102081f
b.NE Label_113
.word 0x91000ad6
.word 0xf85b83b1
.word 0xf9002234
b __exception_handler_entry
Label_113:
b Label_112
Label_106:
.word 0xf100051f
b.NE Label_107
.word 0xf85e83ac
.word 0xf9401989
.word 0x79405129
.word 0xeb0e013f
b.LT Label_115
Label_114:
.word 0xaa0e03e9
Label_115:
.word 0xf85b83b1
.word 0xf85883a2
.word 0xf9002234
.word 0xaa0903e4
.word 0xaa1103e3
.word 0xaa0e03e1
.word 0xaa1303e0
.word 0xa9bf7ffe
bl _js_build_mapped_arguments_gc
.word 0xa8c17ffe
.word 0xf102081f
b.NE Label_116
.word 0x91000ad6
.word 0xf85b83b1
.word 0xf9002234
b __exception_handler_entry
Label_116:
b Label_112
Label_107:
.word 0xf100091f
b.NE Label_108
.word 0xf85e83a0
b Label_112
Label_108:
.word 0xf1000d1f
b.NE Label_109
.word 0xf85d03af
.word 0xaa0f03e0
b Label_112
Label_109:
.word 0xf100111f
b.NE Label_110
.word 0xf85e83ac
.word 0xf9402189
cbz x9, Label_117
.word 0xaa0903e0
b Label_118
Label_117:
.word 0xd2800240
Label_118:
b Label_112
Label_110:
.word 0xf100151f
b.NE Label_111
.word 0xb27f03e9
.word 0xf85b83b1
.word 0xf9002234
.word 0xaa0903e1
.word 0xaa1303e0
.word 0xa9bf7ffe
bl _LEPUS_NewObjectProto
.word 0xa8c17ffe
.word 0xf102081f
b.NE Label_119
.word 0x91000ad6
.word 0xf85b83b1
.word 0xf9002234
b __exception_handler_entry
Label_119:
b Label_112
Label_111:
Label_112:
.word 0x38402ec8
.word 0x9103c908
.word 0xf8685aa9
.word 0xd61f0120
.global _dispatch_table_0_13
_dispatch_table_0_13:
.word 0xf85e03ae
.word 0xf85b83b1
.word 0xf9002234
.word 0x784012c1
.word 0xf85883a3
.word 0xaa0e03e2
.word 0xaa1303e0
.word 0xa9bf7ffe
bl _js_build_rest_gc
.word 0xa8c17ffe
.word 0xf102081f
b.NE Label_120
.word 0x91000ed6
.word 0xf85b83b1
.word 0xf9002234
b __exception_handler_entry
Label_120:
.word 0x38403ec8
.word 0x9103c908
.word 0xf8685aa9
.word 0xd61f0120
.global _dispatch_table_1_13
_dispatch_table_1_13:
.word 0xf85e03ae
.word 0xf8008680
.word 0xf85b83b1
.word 0xf9002234
.word 0x784012c1
.word 0xf85883a3
.word 0xaa0e03e2
.word 0xaa1303e0
.word 0xa9bf7ffe
bl _js_build_rest_gc
.word 0xa8c17ffe
.word 0xf102081f
b.NE Label_121
.word 0x91000ed6
.word 0xf85b83b1
.word 0xf9002234
b __exception_handler_entry
Label_121:
.word 0xaa0003e1
.word 0xf85f8e80
.word 0x38403ec8
.word 0x91079108
.word 0xf8685aa9
.word 0xd61f0120
.global _dispatch_table_2_13
_dispatch_table_2_13:
.word 0xf85e03ae
.word 0xa8810680
.word 0xf85b83b1
.word 0xf9002234
.word 0x784012c1
.word 0xf85883a3
.word 0xaa0e03e2
.word 0xaa1303e0
.word 0xa9bf7ffe
bl _js_build_rest_gc
.word 0xa8c17ffe
.word 0xf102081f
b.NE Label_122
.word 0x91000ed6
.word 0xf85b83b1
.word 0xf9002234
b __exception_handler_entry
Label_122:
.word 0xaa0003e1
.word 0xf85f8e80
.word 0x38403ec8
.word 0x91079108
.word 0xf8685aa9
.word 0xd61f0120
.global _dispatch_table_0_14
_dispatch_table_0_14:
.word 0xf85f8e80
.word 0x38401ec8
.word 0x91000108
.word 0xf8685aa9
.word 0xd61f0120
.global _dispatch_table_1_14
_dispatch_table_1_14:
.word 0x38401ec8
.word 0x91000108
.word 0xf8685aa9
.word 0xd61f0120
.global _dispatch_table_2_14
_dispatch_table_2_14:
.word 0x38401ec8
.word 0x9103c908
.word 0xf8685aa9
.word 0xd61f0120
.global _dispatch_table_0_15
_dispatch_table_0_15:
.word 0xa9ff0680
.word 0xaa0103e0
.word 0x38401ec8
.word 0x9103c908
.word 0xf8685aa9
.word 0xd61f0120
.global _dispatch_table_1_15
_dispatch_table_1_15:
.word 0xaa0003e1
.word 0xf85f8e80
.global _dispatch_table_2_15
_dispatch_table_2_15:
.word 0xaa0103e0
.word 0x38401ec8
.word 0x9103c908
.word 0xf8685aa9
.word 0xd61f0120
.global _dispatch_table_0_16
_dispatch_table_0_16:
.word 0xa9ff0680
.word 0xf85f8e88
.word 0xf8008680
.word 0xf8008681
.word 0x38401ec8
.word 0x91000108
.word 0xf8685aa9
.word 0xd61f0120
.global _dispatch_table_1_16
_dispatch_table_1_16:
.word 0xaa0003e1
.word 0xf85f8e80
.global _dispatch_table_2_16
_dispatch_table_2_16:
.word 0xf85f8e88
.word 0xf8008680
.word 0xf8008681
.word 0x38401ec8
.word 0x91000108
.word 0xf8685aa9
.word 0xd61f0120
.global _dispatch_table_2_17
_dispatch_table_2_17:
.word 0xf8008680
.word 0xaa0103e0
.word 0xf85b83b1
.word 0xf9002234
.word 0xaa0003e1
.word 0x38401ec8
.word 0x91079108
.word 0xf8685aa9
.word 0xd61f0120
.global _dispatch_table_0_17
_dispatch_table_0_17:
.word 0xf85f8e80
.global _dispatch_table_1_17
_dispatch_table_1_17:
.word 0xaa0003e1
.word 0x38401ec8
.word 0x91079108
.word 0xf8685aa9
.word 0xd61f0120
.global _dispatch_table_0_18
_dispatch_table_0_18:
.word 0xa9ff0680
.word 0xf8008680
.word 0x38401ec8
.word 0x91079108
.word 0xf8685aa9
.word 0xd61f0120
.global _dispatch_table_1_18
_dispatch_table_1_18:
.word 0xaa0003e1
.word 0xf85f8e80
.global _dispatch_table_2_18
_dispatch_table_2_18:
.word 0xf8008680
.word 0x38401ec8
.word 0x91079108
.word 0xf8685aa9
.word 0xd61f0120
.global _dispatch_table_0_19
_dispatch_table_0_19:
.word 0xa9ff0680
.word 0xf8008680
.word 0xf8008681
.word 0x38401ec8
.word 0x91079108
.word 0xf8685aa9
.word 0xd61f0120
.global _dispatch_table_1_19
_dispatch_table_1_19:
.word 0xaa0003e1
.word 0xf85f8e80
.global _dispatch_table_2_19
_dispatch_table_2_19:
.word 0xf8008680
.word 0xf8008681
.word 0x38401ec8
.word 0x91079108
.word 0xf8685aa9
.word 0xd61f0120
.global _dispatch_table_1_20
_dispatch_table_1_20:
.word 0xf8008680
.word 0xf85b83b1
.word 0xf9002234
.word 0xf85e8288
.word 0xf85f0280
.word 0xf85f8281
.word 0xf8008688
.word 0x38401ec8
.word 0x91079108
.word 0xf8685aa9
.word 0xd61f0120
.global _dispatch_table_2_20
_dispatch_table_2_20:
.word 0xa8810680
.word 0xf85b83b1
.word 0xf9002234
.global _dispatch_table_0_20
_dispatch_table_0_20:
.word 0xf85e8288
.word 0xf85f0280
.word 0xf85f8281
.word 0xf8008688
.word 0x38401ec8
.word 0x91079108
.word 0xf8685aa9
.word 0xd61f0120
.global _dispatch_table_0_21
_dispatch_table_0_21:
.word 0xf85f8280
.word 0xf85f0281
.word 0xf81f8281
.word 0xf81f0280
.word 0x38401ec8
.word 0x9103c908
.word 0xf8685aa9
.word 0xd61f0120
.global _dispatch_table_1_21
_dispatch_table_1_21:
.word 0xaa0003e1
.word 0xf85f8280
.word 0xf81f8281
.word 0x38401ec8
.word 0x91079108
.word 0xf8685aa9
.word 0xd61f0120
.global _dispatch_table_2_21
_dispatch_table_2_21:
.word 0xf8008681
.word 0x38401ec8
.word 0x91079108
.word 0xf8685aa9
.word 0xd61f0120
.global _dispatch_table_2_22
_dispatch_table_2_22:
.word 0xf8008680
.word 0xaa0103e0
.word 0xf85b83b1
.word 0xf9002234
.word 0xaa0003e8
.word 0xf85f8e80
.word 0xf85f8e81
.word 0xf8008688
.word 0xf8008681
.word 0xaa0803e1
.word 0x38401ec8
.word 0x91079108
.word 0xf8685aa9
.word 0xd61f0120
.global _dispatch_table_0_22
_dispatch_table_0_22:
.word 0xf85f8e80
.global _dispatch_table_1_22
_dispatch_table_1_22:
.word 0xaa0003e8
.word 0xf85f8e80
.word 0xf85f8e81
.word 0xf8008688
.word 0xf8008681
.word 0xaa0803e1
.word 0x38401ec8
.word 0x91079108
.word 0xf8685aa9
.word 0xd61f0120
.global _dispatch_table_2_23
_dispatch_table_2_23:
.word 0xf8008680
.word 0xaa0103e0
.word 0xf85b83b1
.word 0xf9002234
.word 0xaa0003e8
.word 0xf85f8e80
.word 0xf85f8e81
.word 0xf85f8e89
.word 0xf8008688
.word 0xf8008689
.word 0xf8008681
.word 0xaa0803e1
.word 0x38401ec8
.word 0x91079108
.word 0xf8685aa9
.word 0xd61f0120
.global _dispatch_table_0_23
_dispatch_table_0_23:
.word 0xf85f8e80
.global _dispatch_table_1_23
_dispatch_table_1_23:
.word 0xaa0003e8
.word 0xf85f8e80
.word 0xf85f8e81
.word 0xf85f8e89
.word 0xf8008688
.word 0xf8008689
.word 0xf8008681
.word 0xaa0803e1
.word 0x38401ec8
.word 0x91079108
.word 0xf8685aa9
.word 0xd61f0120
.global _dispatch_table_0_24
_dispatch_table_0_24:
.word 0xa9ff0680
.word 0xaa0003e8
.word 0xf85f8e80
.word 0xf8008688
.word 0x38401ec8
.word 0x91079108
.word 0xf8685aa9
.word 0xd61f0120
.global _dispatch_table_1_24
_dispatch_table_1_24:
.word 0xaa0003e1
.word 0xf85f8e80
.global _dispatch_table_2_24
_dispatch_table_2_24:
.word 0xaa0003e8
.word 0xf85f8e80
.word 0xf8008688
.word 0x38401ec8
.word 0x91079108
.word 0xf8685aa9
.word 0xd61f0120
.global _dispatch_table_0_25
_dispatch_table_0_25:
.word 0xa9ff0680
.word 0xaa0003e8
.word 0xf85f8e80
.word 0xf85f8e89
.word 0xf8008688
.word 0xf8008689
.word 0x38401ec8
.word 0x91079108
.word 0xf8685aa9
.word 0xd61f0120
.global _dispatch_table_1_25
_dispatch_table_1_25:
.word 0xaa0003e1
.word 0xf85f8e80
.global _dispatch_table_2_25
_dispatch_table_2_25:
.word 0xaa0003e8
.word 0xf85f8e80
.word 0xf85f8e89
.word 0xf8008688
.word 0xf8008689
.word 0x38401ec8
.word 0x91079108
.word 0xf8685aa9
.word 0xd61f0120
.global _dispatch_table_0_26
_dispatch_table_0_26:
.word 0xa9ff0680
.word 0xaa0003e8
.word 0xf85f8e80
.word 0xf85f8e89
.word 0xf85f8e83
.word 0xf8008688
.word 0xf8008683
.word 0xf8008689
.word 0x38401ec8
.word 0x91079108
.word 0xf8685aa9
.word 0xd61f0120
.global _dispatch_table_1_26
_dispatch_table_1_26:
.word 0xaa0003e1
.word 0xf85f8e80
.global _dispatch_table_2_26
_dispatch_table_2_26:
.word 0xaa0003e8
.word 0xf85f8e80
.word 0xf85f8e89
.word 0xf85f8e83
.word 0xf8008688
.word 0xf8008683
.word 0xf8008689
.word 0x38401ec8
.word 0x91079108
.word 0xf8685aa9
.word 0xd61f0120
.global _dispatch_table_0_27
_dispatch_table_0_27:
.word 0xa9ff0680
.word 0xaa0003e8
.word 0xaa0103e0
.word 0xaa0803e1
.word 0x38401ec8
.word 0x91079108
.word 0xf8685aa9
.word 0xd61f0120
.global _dispatch_table_1_27
_dispatch_table_1_27:
.word 0xaa0003e1
.word 0xf85f8e80
.global _dispatch_table_2_27
_dispatch_table_2_27:
.word 0xaa0003e8
.word 0xaa0103e0
.word 0xaa0803e1
.word 0x38401ec8
.word 0x91079108
.word 0xf8685aa9
.word 0xd61f0120
.global _dispatch_table_0_28
_dispatch_table_0_28:
.word 0xa9ff0680
.word 0xaa0003e8
.word 0xaa0103e9
.word 0xf85f8e81
.word 0xf85f8e80
.word 0xf8008688
.word 0xf8008689
.word 0x38401ec8
.word 0x91079108
.word 0xf8685aa9
.word 0xd61f0120
.global _dispatch_table_1_28
_dispatch_table_1_28:
.word 0xaa0003e1
.word 0xf85f8e80
.global _dispatch_table_2_28
_dispatch_table_2_28:
.word 0xaa0003e8
.word 0xaa0103e9
.word 0xf85f8e81
.word 0xf85f8e80
.word 0xf8008688
.word 0xf8008689
.word 0x38401ec8
.word 0x91079108
.word 0xf8685aa9
.word 0xd61f0120
.global _dispatch_table_0_29
_dispatch_table_0_29:
.word 0xa9ff0680
.word 0xf85f8e88
.word 0xf8008680
.word 0xaa0103e0
.word 0xaa0803e1
.word 0x38401ec8
.word 0x91079108
.word 0xf8685aa9
.word 0xd61f0120
.global _dispatch_table_1_29
_dispatch_table_1_29:
.word 0xaa0003e1
.word 0xf85f8e80
.global _dispatch_table_2_29
_dispatch_table_2_29:
.word 0xf85f8e88
.word 0xf8008680
.word 0xaa0103e0
.word 0xaa0803e1
.word 0x38401ec8
.word 0x91079108
.word 0xf8685aa9
.word 0xd61f0120
.global _dispatch_table_0_30
_dispatch_table_0_30:
.word 0xa9ff0680
.word 0xf85f8e88
.word 0xf8008681
.word 0xaa0003e1
.word 0xaa0803e0
.word 0x38401ec8
.word 0x91079108
.word 0xf8685aa9
.word 0xd61f0120
.global _dispatch_table_1_30
_dispatch_table_1_30:
.word 0xaa0003e1
.word 0xf85f8e80
.global _dispatch_table_2_30
_dispatch_table_2_30:
.word 0xf85f8e88
.word 0xf8008681
.word 0xaa0003e1
.word 0xaa0803e0
.word 0x38401ec8
.word 0x91079108
.word 0xf8685aa9
.word 0xd61f0120
.global _dispatch_table_0_31
_dispatch_table_0_31:
.word 0xa9ff0680
.word 0xf85f8e88
.word 0xf85f8e89
.word 0xf8008688
.word 0xf8008680
.word 0xaa0103e0
.word 0xaa0903e1
.word 0x38401ec8
.word 0x91079108
.word 0xf8685aa9
.word 0xd61f0120
.global _dispatch_table_1_31
_dispatch_table_1_31:
.word 0xaa0003e1
.word 0xf85f8e80
.global _dispatch_table_2_31
_dispatch_table_2_31:
.word 0xf85f8e88
.word 0xf85f8e89
.word 0xf8008688
.word 0xf8008680
.word 0xaa0103e0
.word 0xaa0903e1
.word 0x38401ec8
.word 0x91079108
.word 0xf8685aa9
.word 0xd61f0120
.global _dispatch_table_0_32
_dispatch_table_0_32:
.word 0xa9ff0680
.word 0xf85f8e88
.word 0xf85f8e89
.word 0xf85f8e83
.word 0xf8008689
.word 0xf8008688
.word 0xf8008680
.word 0xaa0103e0
.word 0xaa0303e1
.word 0x38401ec8
.word 0x91079108
.word 0xf8685aa9
.word 0xd61f0120
.global _dispatch_table_1_32
_dispatch_table_1_32:
.word 0xaa0003e1
.word 0xf85f8e80
.global _dispatch_table_2_32
_dispatch_table_2_32:
.word 0xf85f8e88
.word 0xf85f8e89
.word 0xf85f8e83
.word 0xf8008689
.word 0xf8008688
.word 0xf8008680
.word 0xaa0103e0
.word 0xaa0303e1
.word 0x38401ec8
.word 0x91079108
.word 0xf8685aa9
.word 0xd61f0120
.global _dispatch_table_1_33
_dispatch_table_1_33:
.word 0xf8008680
.word 0xf85b83b1
.word 0xf9002234
.word 0xf85b83b1
.word 0x91000ec8
.word 0xf9001a28
.word 0x784012ce
.word 0xcb0e03e8
.word 0xd1000508
.word 0xf868da8f
.word 0xd1000508
.word 0xf868da8c
.word 0xf81983b6
.word 0x910009c8
.word 0xf81e03a8
.word 0xcb2e4e84
.word 0xd2800005
.word 0xf85b83b1
.word 0xf9002234
.word 0xaa0e03e3
.word 0xaa0f03e2
.word 0xaa0c03e1
.word 0xaa1303e0
.word 0xa9bf7ffe
bl _JS_CallConstructorInternal_GC
.word 0xa8c17ffe
.word 0xf102081f
b.NE Label_123
.word 0x91000ed6
.word 0xf85b83b1
.word 0xf9002234
b __exception_handler_entry
Label_123:
.word 0xaa0003f9
.word 0xf85e03ae
.word 0xaa0e03e8
.word 0xea08011f
b.EQ Label_124
Label_125:
.word 0xd1002294
.word 0xd1000508
cbnz x8, Label_125
Label_124:
.word 0xaa1903e0
.word 0x38403ec8
.word 0x9103c908
.word 0xf8685aa9
.word 0xd61f0120
.global _dispatch_table_2_33
_dispatch_table_2_33:
.word 0xa8810680
.word 0xf85b83b1
.word 0xf9002234
.global _dispatch_table_0_33
_dispatch_table_0_33:
.word 0xf85b83b1
.word 0x91000ec8
.word 0xf9001a28
.word 0x784012ce
.word 0xcb0e03e8
.word 0xd1000508
.word 0xf868da8f
.word 0xd1000508
.word 0xf868da8c
.word 0xf81983b6
.word 0x910009c8
.word 0xf81e03a8
.word 0xcb2e4e84
.word 0xd2800005
.word 0xf85b83b1
.word 0xf9002234
.word 0xaa0e03e3
.word 0xaa0f03e2
.word 0xaa0c03e1
.word 0xaa1303e0
.word 0xa9bf7ffe
bl _JS_CallConstructorInternal_GC
.word 0xa8c17ffe
.word 0xf102081f
b.NE Label_126
.word 0x91000ed6
.word 0xf85b83b1
.word 0xf9002234
b __exception_handler_entry
Label_126:
.word 0xaa0003f9
.word 0xf85e03ae
.word 0xaa0e03e8
.word 0xea08011f
b.EQ Label_127
Label_128:
.word 0xd1002294
.word 0xd1000508
cbnz x8, Label_128
Label_127:
.word 0xaa1903e0
.word 0x38403ec8
.word 0x9103c908
.word 0xf8685aa9
.word 0xd61f0120
.global _dispatch_table_1_34
_dispatch_table_1_34:
.word 0xf8008680
.word 0xf85b83b1
.word 0xf9002234
.word 0x784012ce
.word 0xcb0e03e8
.word 0xd1000509
.word 0xf869da8c
.word 0xf81e03ae
.word 0xf85b83b1
.word 0x91000ec8
.word 0xf9001a28
.word 0xd2800259
.word 0xd280024f
.word 0x910003ed
.word 0xf81f03b4
.word 0xd2800048
.word 0xf2ffffe8
.word 0xea08019f
b.NE Label_132
.word 0x79400d88
.word 0xf1003508
b.NE Label_130
.word 0xaa1e03e1
adrp x30, _normal_entry@PAGE
add x30, x30, _normal_entry@PAGEOFF
.word 0xaa1e03e0
.word 0xaa0103fe
b Label_131
Label_130:
.word 0xaa1e03e1
adrp x30, _native_entry@PAGE
add x30, x30, _native_entry@PAGEOFF
.word 0xaa1e03e0
.word 0xaa0103fe
b Label_131
Label_132:
.word 0xaa1303e0
.word 0xa9bf7ffe
bl _JS_ThrowTypeErrorNotFunction
.word 0xa8c17ffe
.word 0x91000ed6
b __exception_handler_entry
Label_131:
.word 0xcb2e4e97
.word 0xf81983b6
.word 0xd2800006
adrp x30, _return_entry_1_3@PAGE
add x30, x30, _return_entry_1_3@PAGEOFF
.word 0xd61f0000
.global _dispatch_table_2_34
_dispatch_table_2_34:
.word 0xa8810680
.word 0xf85b83b1
.word 0xf9002234
.global _dispatch_table_0_34
_dispatch_table_0_34:
.word 0x784012ce
.word 0xcb0e03e8
.word 0xd1000509
.word 0xf869da8c
.word 0xf81e03ae
.word 0xf85b83b1
.word 0x91000ec8
.word 0xf9001a28
.word 0xd2800259
.word 0xd280024f
.word 0x910003ed
.word 0xf81f03b4
.word 0xd2800048
.word 0xf2ffffe8
.word 0xea08019f
b.NE Label_136
.word 0x79400d88
.word 0xf1003508
b.NE Label_134
.word 0xaa1e03e1
adrp x30, _normal_entry@PAGE
add x30, x30, _normal_entry@PAGEOFF
.word 0xaa1e03e0
.word 0xaa0103fe
b Label_135
Label_134:
.word 0xaa1e03e1
adrp x30, _native_entry@PAGE
add x30, x30, _native_entry@PAGEOFF
.word 0xaa1e03e0
.word 0xaa0103fe
b Label_135
Label_136:
.word 0xaa1303e0
.word 0xa9bf7ffe
bl _JS_ThrowTypeErrorNotFunction
.word 0xa8c17ffe
.word 0x91000ed6
b __exception_handler_entry
Label_135:
.word 0xcb2e4e97
.word 0xf81983b6
.word 0xd2800006
adrp x30, _return_entry_1_3@PAGE
add x30, x30, _return_entry_1_3@PAGEOFF
.word 0xd61f0000
.global _dispatch_table_1_35
_dispatch_table_1_35:
.word 0xf8008680
.word 0xf85b83b1
.word 0xf9002234
.cfi_startproc
.cfi_def_cfa x29,  16
.cfi_offset x29, -16
.cfi_offset x30, -8
.word 0x784012ce
.word 0xcb0e03e8
.word 0xd1000509
.word 0xf869da8c
.word 0xf81e03ae
.word 0xf85b83b1
.word 0x91000ec8
.word 0xf9001a28
.word 0xd2800259
.word 0xd280024f
.word 0x910003ed
.word 0xf81f03b4
.word 0xd2800048
.word 0xf2ffffe8
.word 0xea08019f
b.NE Label_140
.word 0x79400d88
.word 0xf1003508
b.NE Label_138
.word 0xaa1e03e1
adrp x30, _normal_entry@PAGE
add x30, x30, _normal_entry@PAGEOFF
.word 0xaa1e03e0
.word 0xaa0103fe
b Label_139
Label_138:
.word 0xaa1e03e1
adrp x30, _native_entry@PAGE
add x30, x30, _native_entry@PAGEOFF
.word 0xaa1e03e0
.word 0xaa0103fe
b Label_139
Label_140:
.word 0xaa1303e0
.word 0xa9bf7ffe
bl _JS_ThrowTypeErrorNotFunction
.word 0xa8c17ffe
.word 0x91000ed6
b __exception_handler_entry
Label_139:
.word 0xcb2e4e97
.word 0xf81983b6
.word 0xd2800006
.word 0xd63f0000
.word 0xf85f03b4
.word 0xf85e03ae
.word 0x910005d8
.word 0xea18031f
b.LE Label_141
Label_142:
.word 0xd1002294
.word 0xd1000718
cbnz x24, Label_142
Label_141:
.word 0xf85983b6
.word 0xf85c83ba
.word 0xa97ae3b7
.word 0xf85a03bc
.word 0xf85903a9
.word 0x9100013f
.word 0xf102081f
b.NE Label_143
.word 0x91000ed6
.word 0xf85b83b1
.word 0xf9002234
b __exception_handler_entry
Label_143:
.cfi_endproc
.word 0xaa0003f9
.word 0xf85b83b1
.word 0xf9401269
.word 0xf940022a
.word 0xf900792a
.word 0xaa1103e1
.word 0xaa1303e0
.word 0xa9bf7ffe
bl _prim_close_var_refs_gc
.word 0xa8c17ffe
.word 0xf85c03bb
Label_145:
.word 0xeb1b029f
b.EQ Label_144
.word 0xf85f8e88
b Label_145
Label_144:
.word 0xf94007be
.cfi_startproc
.word 0x910003bf
.word 0xa8c17bfd
.cfi_def_cfa x29,  16
.cfi_offset x29, -16
.cfi_offset x30, -8
.cfi_endproc
.word 0xaa1903e0
.word 0xd65f03c0
.global _dispatch_table_2_35
_dispatch_table_2_35:
.word 0xa8810680
.word 0xf85b83b1
.word 0xf9002234
.global _dispatch_table_0_35
_dispatch_table_0_35:
.cfi_startproc
.cfi_def_cfa x29,  16
.cfi_offset x29, -16
.cfi_offset x30, -8
.word 0x784012ce
.word 0xcb0e03e8
.word 0xd1000509
.word 0xf869da8c
.word 0xf81e03ae
.word 0xf85b83b1
.word 0x91000ec8
.word 0xf9001a28
.word 0xd2800259
.word 0xd280024f
.word 0x910003ed
.word 0xf81f03b4
.word 0xd2800048
.word 0xf2ffffe8
.word 0xea08019f
b.NE Label_149
.word 0x79400d88
.word 0xf1003508
b.NE Label_147
.word 0xaa1e03e1
adrp x30, _normal_entry@PAGE
add x30, x30, _normal_entry@PAGEOFF
.word 0xaa1e03e0
.word 0xaa0103fe
b Label_148
Label_147:
.word 0xaa1e03e1
adrp x30, _native_entry@PAGE
add x30, x30, _native_entry@PAGEOFF
.word 0xaa1e03e0
.word 0xaa0103fe
b Label_148
Label_149:
.word 0xaa1303e0
.word 0xa9bf7ffe
bl _JS_ThrowTypeErrorNotFunction
.word 0xa8c17ffe
.word 0x91000ed6
b __exception_handler_entry
Label_148:
.word 0xcb2e4e97
.word 0xf81983b6
.word 0xd2800006
.word 0xd63f0000
.word 0xf85f03b4
.word 0xf85e03ae
.word 0x910005d8
.word 0xea18031f
b.LE Label_150
Label_151:
.word 0xd1002294
.word 0xd1000718
cbnz x24, Label_151
Label_150:
.word 0xf85983b6
.word 0xf85c83ba
.word 0xa97ae3b7
.word 0xf85a03bc
.word 0xf85903a9
.word 0x9100013f
.word 0xf102081f
b.NE Label_152
.word 0x91000ed6
.word 0xf85b83b1
.word 0xf9002234
b __exception_handler_entry
Label_152:
.cfi_endproc
.word 0xaa0003f9
.word 0xf85b83b1
.word 0xf9401269
.word 0xf940022a
.word 0xf900792a
.word 0xaa1103e1
.word 0xaa1303e0
.word 0xa9bf7ffe
bl _prim_close_var_refs_gc
.word 0xa8c17ffe
.word 0xf85c03bb
Label_154:
.word 0xeb1b029f
b.EQ Label_153
.word 0xf85f8e88
b Label_154
Label_153:
.word 0xf94007be
.cfi_startproc
.word 0x910003bf
.word 0xa8c17bfd
.cfi_def_cfa x29,  16
.cfi_offset x29, -16
.cfi_offset x30, -8
.cfi_endproc
.word 0xaa1903e0
.word 0xd65f03c0
.global _dispatch_table_1_36
_dispatch_table_1_36:
.word 0xf8008680
.word 0xf85b83b1
.word 0xf9002234
.word 0x784012ce
.word 0xcb0e03e8
.word 0xd1000508
.word 0xf868da8c
.word 0xd1000508
.word 0xf868da99
.word 0xf81983b6
.word 0x910005c8
.word 0xf81e03a8
.word 0xf85b83b1
.word 0x91000ec8
.word 0xf9001a28
.word 0xd280024f
.word 0x910003ed
.word 0xf81f03b4
.word 0xd2800048
.word 0xf2ffffe8
.word 0xea08019f
b.NE Label_158
.word 0x79400d88
.word 0xf1003508
b.NE Label_156
.word 0xaa1e03e1
adrp x30, _normal_entry@PAGE
add x30, x30, _normal_entry@PAGEOFF
.word 0xaa1e03e0
.word 0xaa0103fe
b Label_157
Label_156:
.word 0xaa1e03e1
adrp x30, _native_entry@PAGE
add x30, x30, _native_entry@PAGEOFF
.word 0xaa1e03e0
.word 0xaa0103fe
b Label_157
Label_158:
.word 0xaa1303e0
.word 0xa9bf7ffe
bl _JS_ThrowTypeErrorNotFunction
.word 0xa8c17ffe
.word 0x91000ed6
b __exception_handler_entry
Label_157:
.word 0xcb2e4e97
.word 0xf81983b6
.word 0xd2800006
adrp x30, _return_entry_1_3@PAGE
add x30, x30, _return_entry_1_3@PAGEOFF
.word 0xd61f0000
.global _dispatch_table_2_36
_dispatch_table_2_36:
.word 0xa8810680
.word 0xf85b83b1
.word 0xf9002234
.global _dispatch_table_0_36
_dispatch_table_0_36:
.word 0x784012ce
.word 0xcb0e03e8
.word 0xd1000508
.word 0xf868da8c
.word 0xd1000508
.word 0xf868da99
.word 0xf81983b6
.word 0x910005c8
.word 0xf81e03a8
.word 0xf85b83b1
.word 0x91000ec8
.word 0xf9001a28
.word 0xd280024f
.word 0x910003ed
.word 0xf81f03b4
.word 0xd2800048
.word 0xf2ffffe8
.word 0xea08019f
b.NE Label_162
.word 0x79400d88
.word 0xf1003508
b.NE Label_160
.word 0xaa1e03e1
adrp x30, _normal_entry@PAGE
add x30, x30, _normal_entry@PAGEOFF
.word 0xaa1e03e0
.word 0xaa0103fe
b Label_161
Label_160:
.word 0xaa1e03e1
adrp x30, _native_entry@PAGE
add x30, x30, _native_entry@PAGEOFF
.word 0xaa1e03e0
.word 0xaa0103fe
b Label_161
Label_162:
.word 0xaa1303e0
.word 0xa9bf7ffe
bl _JS_ThrowTypeErrorNotFunction
.word 0xa8c17ffe
.word 0x91000ed6
b __exception_handler_entry
Label_161:
.word 0xcb2e4e97
.word 0xf81983b6
.word 0xd2800006
adrp x30, _return_entry_1_3@PAGE
add x30, x30, _return_entry_1_3@PAGEOFF
.word 0xd61f0000
.global _dispatch_table_1_37
_dispatch_table_1_37:
.word 0xf8008680
.word 0xf85b83b1
.word 0xf9002234
.cfi_startproc
.cfi_def_cfa x29,  16
.cfi_offset x29, -16
.cfi_offset x30, -8
.word 0x784012ce
.word 0xcb0e03e8
.word 0xd1000508
.word 0xf868da8c
.word 0xd1000508
.word 0xf868da99
.word 0xf81983b6
.word 0x910005c8
.word 0xf81e03a8
.word 0xf85b83b1
.word 0x91000ec8
.word 0xf9001a28
.word 0xd280024f
.word 0x910003ed
.word 0xf81f03b4
.word 0xd2800048
.word 0xf2ffffe8
.word 0xea08019f
b.NE Label_166
.word 0x79400d88
.word 0xf1003508
b.NE Label_164
.word 0xaa1e03e1
adrp x30, _normal_entry@PAGE
add x30, x30, _normal_entry@PAGEOFF
.word 0xaa1e03e0
.word 0xaa0103fe
b Label_165
Label_164:
.word 0xaa1e03e1
adrp x30, _native_entry@PAGE
add x30, x30, _native_entry@PAGEOFF
.word 0xaa1e03e0
.word 0xaa0103fe
b Label_165
Label_166:
.word 0xaa1303e0
.word 0xa9bf7ffe
bl _JS_ThrowTypeErrorNotFunction
.word 0xa8c17ffe
.word 0x91000ed6
b __exception_handler_entry
Label_165:
.word 0xcb2e4e97
.word 0xf81983b6
.word 0xd2800006
.word 0xd63f0000
.word 0xf85f03b4
.word 0xf85e03ae
.word 0x910005d8
.word 0xea18031f
b.LE Label_167
Label_168:
.word 0xd1002294
.word 0xd1000718
cbnz x24, Label_168
Label_167:
.word 0xf85983b6
.word 0xf85c83ba
.word 0xa97ae3b7
.word 0xf85a03bc
.word 0xf85903a9
.word 0x9100013f
.word 0xf102081f
b.NE Label_169
.word 0x91000ed6
.word 0xf85b83b1
.word 0xf9002234
b __exception_handler_entry
Label_169:
.cfi_endproc
.word 0xaa0003f9
.word 0xf85b83b1
.word 0xf9401269
.word 0xf940022a
.word 0xf900792a
.word 0xaa1103e1
.word 0xaa1303e0
.word 0xa9bf7ffe
bl _prim_close_var_refs_gc
.word 0xa8c17ffe
.word 0xf85c03bb
Label_171:
.word 0xeb1b029f
b.EQ Label_170
.word 0xf85f8e88
b Label_171
Label_170:
.word 0xf94007be
.cfi_startproc
.word 0x910003bf
.word 0xa8c17bfd
.cfi_def_cfa x29,  16
.cfi_offset x29, -16
.cfi_offset x30, -8
.cfi_endproc
.word 0xaa1903e0
.word 0xd65f03c0
.global _dispatch_table_2_37
_dispatch_table_2_37:
.word 0xa8810680
.word 0xf85b83b1
.word 0xf9002234
.global _dispatch_table_0_37
_dispatch_table_0_37:
.cfi_startproc
.cfi_def_cfa x29,  16
.cfi_offset x29, -16
.cfi_offset x30, -8
.word 0x784012ce
.word 0xcb0e03e8
.word 0xd1000508
.word 0xf868da8c
.word 0xd1000508
.word 0xf868da99
.word 0xf81983b6
.word 0x910005c8
.word 0xf81e03a8
.word 0xf85b83b1
.word 0x91000ec8
.word 0xf9001a28
.word 0xd280024f
.word 0x910003ed
.word 0xf81f03b4
.word 0xd2800048
.word 0xf2ffffe8
.word 0xea08019f
b.NE Label_175
.word 0x79400d88
.word 0xf1003508
b.NE Label_173
.word 0xaa1e03e1
adrp x30, _normal_entry@PAGE
add x30, x30, _normal_entry@PAGEOFF
.word 0xaa1e03e0
.word 0xaa0103fe
b Label_174
Label_173:
.word 0xaa1e03e1
adrp x30, _native_entry@PAGE
add x30, x30, _native_entry@PAGEOFF
.word 0xaa1e03e0
.word 0xaa0103fe
b Label_174
Label_175:
.word 0xaa1303e0
.word 0xa9bf7ffe
bl _JS_ThrowTypeErrorNotFunction
.word 0xa8c17ffe
.word 0x91000ed6
b __exception_handler_entry
Label_174:
.word 0xcb2e4e97
.word 0xf81983b6
.word 0xd2800006
.word 0xd63f0000
.word 0xf85f03b4
.word 0xf85e03ae
.word 0x910005d8
.word 0xea18031f
b.LE Label_176
Label_177:
.word 0xd1002294
.word 0xd1000718
cbnz x24, Label_177
Label_176:
.word 0xf85983b6
.word 0xf85c83ba
.word 0xa97ae3b7
.word 0xf85a03bc
.word 0xf85903a9
.word 0x9100013f
.word 0xf102081f
b.NE Label_178
.word 0x91000ed6
.word 0xf85b83b1
.word 0xf9002234
b __exception_handler_entry
Label_178:
.cfi_endproc
.word 0xaa0003f9
.word 0xf85b83b1
.word 0xf9401269
.word 0xf940022a
.word 0xf900792a
.word 0xaa1103e1
.word 0xaa1303e0
.word 0xa9bf7ffe
bl _prim_close_var_refs_gc
.word 0xa8c17ffe
.word 0xf85c03bb
Label_180:
.word 0xeb1b029f
b.EQ Label_179
.word 0xf85f8e88
b Label_180
Label_179:
.word 0xf94007be
.cfi_startproc
.word 0x910003bf
.word 0xa8c17bfd
.cfi_def_cfa x29,  16
.cfi_offset x29, -16
.cfi_offset x30, -8
.cfi_endproc
.word 0xaa1903e0
.word 0xd65f03c0
.global _dispatch_table_1_38
_dispatch_table_1_38:
.word 0xf8008680
.word 0xf85b83b1
.word 0xf9002234
.word 0xf85b83b1
.word 0xf9002234
.word 0xaa1303e0
.word 0xa9bf7ffe
bl _PRIM_JS_NewArray_GC
.word 0xa8c17ffe
.word 0xf102081f
b.NE Label_181
.word 0x91000ed6
.word 0xf85b83b1
.word 0xf9002234
b __exception_handler_entry
Label_181:
.word 0x784012d9
.word 0xaa1903e1
Label_184:
.word 0xea19033f
b.EQ Label_183
.word 0xcb190028
.word 0xcb1903e9
.word 0xf869da83
.word 0xd1000739
.word 0x32010102
.word 0xd28800e4
.word 0xf8008680
.word 0xf85b83b1
.word 0xf9002234
.word 0xf8008681
.word 0xaa0003e1
.word 0xaa1303e0
.word 0xa9bf7ffe
bl _LEPUS_DefinePropertyValue
.word 0xa8c17ffe
.word 0xf100001f
b.LT Label_182
.word 0xf85f8e81
.word 0xf85f8e80
b Label_184
Label_183:
.word 0xcb214e94
.word 0x38403ec8
.word 0x9103c908
.word 0xf8685aa9
.word 0xd61f0120
Label_182:
.word 0xf85f8e81
.word 0xf85f8e80
.word 0x91000ed6
.word 0xf85b83b1
.word 0xf9002234
b __exception_handler_entry
.word 0x38403ec8
.word 0x9103c908
.word 0xf8685aa9
.word 0xd61f0120
.global _dispatch_table_2_38
_dispatch_table_2_38:
.word 0xa8810680
.word 0xf85b83b1
.word 0xf9002234
.global _dispatch_table_0_38
_dispatch_table_0_38:
.word 0xf85b83b1
.word 0xf9002234
.word 0xaa1303e0
.word 0xa9bf7ffe
bl _PRIM_JS_NewArray_GC
.word 0xa8c17ffe
.word 0xf102081f
b.NE Label_185
.word 0x91000ed6
.word 0xf85b83b1
.word 0xf9002234
b __exception_handler_entry
Label_185:
.word 0x784012d9
.word 0xaa1903e1
Label_188:
.word 0xea19033f
b.EQ Label_187
.word 0xcb190028
.word 0xcb1903e9
.word 0xf869da83
.word 0xd1000739
.word 0x32010102
.word 0xd28800e4
.word 0xf8008680
.word 0xf85b83b1
.word 0xf9002234
.word 0xf8008681
.word 0xaa0003e1
.word 0xaa1303e0
.word 0xa9bf7ffe
bl _LEPUS_DefinePropertyValue
.word 0xa8c17ffe
.word 0xf100001f
b.LT Label_186
.word 0xf85f8e81
.word 0xf85f8e80
b Label_188
Label_187:
.word 0xcb214e94
.word 0x38403ec8
.word 0x9103c908
.word 0xf8685aa9
.word 0xd61f0120
Label_186:
.word 0xf85f8e81
.word 0xf85f8e80
.word 0x91000ed6
.word 0xf85b83b1
.word 0xf9002234
b __exception_handler_entry
.word 0x38403ec8
.word 0x9103c908
.word 0xf8685aa9
.word 0xd61f0120
.global _dispatch_table_1_39
_dispatch_table_1_39:
.word 0xf8008680
.word 0xf85b83b1
.word 0xf9002234
.word 0x784012c8
.word 0xf85e8281
.word 0xb27f03e2
.word 0xd1004283
.word 0xf85b83b1
.word 0xf9002234
.word 0xaa0803e4
.word 0xaa1303e0
.word 0xa9bf7ffe
bl _js_function_apply_gc
.word 0xa8c17ffe
.word 0xf102081f
b.NE Label_189
.word 0x91000ed6
.word 0xf85b83b1
.word 0xf9002234
b __exception_handler_entry
Label_189:
.word 0xaa0003f9
.word 0xf85f8e81
.word 0xf85f8e81
.word 0xf85f8e81
.word 0xaa1903e0
.word 0x38403ec8
.word 0x9103c908
.word 0xf8685aa9
.word 0xd61f0120
.global _dispatch_table_2_39
_dispatch_table_2_39:
.word 0xa8810680
.word 0xf85b83b1
.word 0xf9002234
.global _dispatch_table_0_39
_dispatch_table_0_39:
.word 0x784012c8
.word 0xf85e8281
.word 0xb27f03e2
.word 0xd1004283
.word 0xf85b83b1
.word 0xf9002234
.word 0xaa0803e4
.word 0xaa1303e0
.word 0xa9bf7ffe
bl _js_function_apply_gc
.word 0xa8c17ffe
.word 0xf102081f
b.NE Label_190
.word 0x91000ed6
.word 0xf85b83b1
.word 0xf9002234
b __exception_handler_entry
Label_190:
.word 0xaa0003f9
.word 0xf85f8e81
.word 0xf85f8e81
.word 0xf85f8e81
.word 0xaa1903e0
.word 0x38403ec8
.word 0x9103c908
.word 0xf8685aa9
.word 0xd61f0120
.global _dispatch_table_2_40
_dispatch_table_2_40:
.word 0xf8008680
.word 0xaa0103e0
.word 0xf85b83b1
.word 0xf9002234
.word 0xaa0003f9
.word 0xf85b83b1
.word 0xf9401269
.word 0xf940022a
.word 0xf900792a
.word 0xaa1103e1
.word 0xaa1303e0
.word 0xa9bf7ffe
bl _prim_close_var_refs_gc
.word 0xa8c17ffe
.word 0xf85c03bb
Label_192:
.word 0xeb1b029f
b.EQ Label_191
.word 0xf85f8e88
b Label_192
Label_191:
.word 0xf94007be
.cfi_startproc
.word 0x910003bf
.word 0xa8c17bfd
.cfi_def_cfa x29,  16
.cfi_offset x29, -16
.cfi_offset x30, -8
.cfi_endproc
.word 0xaa1903e0
.word 0xd65f03c0
.global _dispatch_table_0_40
_dispatch_table_0_40:
.word 0xf85f8e80
.global _dispatch_table_1_40
_dispatch_table_1_40:
.word 0xaa0003f9
.word 0xf85b83b1
.word 0xf9401269
.word 0xf940022a
.word 0xf900792a
.word 0xaa1103e1
.word 0xaa1303e0
.word 0xa9bf7ffe
bl _prim_close_var_refs_gc
.word 0xa8c17ffe
.word 0xf85c03bb
Label_194:
.word 0xeb1b029f
b.EQ Label_193
.word 0xf85f8e88
b Label_194
Label_193:
.word 0xf94007be
.cfi_startproc
.word 0x910003bf
.word 0xa8c17bfd
.cfi_def_cfa x29,  16
.cfi_offset x29, -16
.cfi_offset x30, -8
.cfi_endproc
.word 0xaa1903e0
.word 0xd65f03c0
.global _dispatch_table_1_41
_dispatch_table_1_41:
.word 0xf8008680
.word 0xf85b83b1
.word 0xf9002234
.word 0xf85b83b1
.word 0xf9401269
.word 0xf940022a
.word 0xf900792a
.word 0xaa1103e1
.word 0xaa1303e0
.word 0xa9bf7ffe
bl _prim_close_var_refs_gc
.word 0xa8c17ffe
.word 0xf85c03bb
Label_196:
.word 0xeb1b029f
b.EQ Label_195
.word 0xf85f8e88
b Label_196
Label_195:
.word 0xf94007be
.cfi_startproc
.word 0x910003bf
.word 0xa8c17bfd
.cfi_def_cfa x29,  16
.cfi_offset x29, -16
.cfi_offset x30, -8
.cfi_endproc
.word 0xd2800240
.word 0xd65f03c0
.global _dispatch_table_2_41
_dispatch_table_2_41:
.word 0xa8810680
.word 0xf85b83b1
.word 0xf9002234
.global _dispatch_table_0_41
_dispatch_table_0_41:
.word 0xf85b83b1
.word 0xf9401269
.word 0xf940022a
.word 0xf900792a
.word 0xaa1103e1
.word 0xaa1303e0
.word 0xa9bf7ffe
bl _prim_close_var_refs_gc
.word 0xa8c17ffe
.word 0xf85c03bb
Label_198:
.word 0xeb1b029f
b.EQ Label_197
.word 0xf85f8e88
b Label_198
Label_197:
.word 0xf94007be
.cfi_startproc
.word 0x910003bf
.word 0xa8c17bfd
.cfi_def_cfa x29,  16
.cfi_offset x29, -16
.cfi_offset x30, -8
.cfi_endproc
.word 0xd2800240
.word 0xd65f03c0
.global _dispatch_table_2_42
_dispatch_table_2_42:
.word 0xf8008680
.word 0xaa0103e0
.word 0xf85b83b1
.word 0xf9002234
.word 0xd2800049
.word 0xf2ffffe9
.word 0xea090009
cbnz x9, Label_199
.word 0xb27f07e1
b Label_200
Label_199:
.word 0xd2800249
.word 0xeb09001f
b.EQ Label_201
.word 0xf8008680
adr x1, Label_202
b Label_203
Label_202:
.asciz "derived class constructor must return an object or undefined"
.align 3
Label_203:
.word 0xf85b83b1
.word 0xf9002234
.word 0xaa1303e0
.word 0xa9bf7ffe
bl _LEPUS_ThrowTypeError
.word 0xa8c17ffe
.word 0xf85b83b1
.word 0xf9002234
.word 0x910006d6
b __exception_handler_entry
Label_201:
.word 0xb2400be1
Label_200:
.word 0x38401ec8
.word 0x91079108
.word 0xf8685aa9
.word 0xd61f0120
.global _dispatch_table_0_42
_dispatch_table_0_42:
.word 0xf85f8e80
.global _dispatch_table_1_42
_dispatch_table_1_42:
.word 0xd2800049
.word 0xf2ffffe9
.word 0xea090009
cbnz x9, Label_204
.word 0xb27f07e1
b Label_205
Label_204:
.word 0xd2800249
.word 0xeb09001f
b.EQ Label_206
.word 0xf8008680
adr x1, Label_207
b Label_208
Label_207:
.asciz "derived class constructor must return an object or undefined"
.align 3
Label_208:
.word 0xf85b83b1
.word 0xf9002234
.word 0xaa1303e0
.word 0xa9bf7ffe
bl _LEPUS_ThrowTypeError
.word 0xa8c17ffe
.word 0xf85b83b1
.word 0xf9002234
.word 0x910006d6
b __exception_handler_entry
Label_206:
.word 0xb2400be1
Label_205:
.word 0x38401ec8
.word 0x91079108
.word 0xf8685aa9
.word 0xd61f0120
.global _dispatch_table_0_43
_dispatch_table_0_43:
.word 0xf85d03af
.word 0xd2800248
.word 0xeb0801ff
b.NE Label_209
adr x1, Label_210
b Label_211
Label_210:
.asciz "class constructors must be invoked with 'new'"
.align 3
Label_211:
.word 0x910006d6
.word 0xf85b83b1
.word 0xf9002234
.word 0xaa1303e0
.word 0xa9bf7ffe
bl _LEPUS_ThrowTypeError
.word 0xa8c17ffe
.word 0xf85b83b1
.word 0xf9002234
b __exception_handler_entry
Label_209:
.word 0x38401ec8
.word 0x91000108
.word 0xf8685aa9
.word 0xd61f0120
.global _dispatch_table_1_43
_dispatch_table_1_43:
.word 0xf85d03af
.word 0xd2800248
.word 0xeb0801ff
b.NE Label_212
adr x1, Label_213
b Label_214
Label_213:
.asciz "class constructors must be invoked with 'new'"
.align 3
Label_214:
.word 0x910006d6
.word 0xf85b83b1
.word 0xf9002234
.word 0xaa1303e0
.word 0xa9bf7ffe
bl _LEPUS_ThrowTypeError
.word 0xa8c17ffe
.word 0xf85b83b1
.word 0xf9002234
b __exception_handler_entry
Label_212:
.word 0x38401ec8
.word 0x9103c908
.word 0xf8685aa9
.word 0xd61f0120
.global _dispatch_table_2_43
_dispatch_table_2_43:
.word 0xf85d03af
.word 0xd2800248
.word 0xeb0801ff
b.NE Label_215
adr x1, Label_216
b Label_217
Label_216:
.asciz "class constructors must be invoked with 'new'"
.align 3
Label_217:
.word 0x910006d6
.word 0xf85b83b1
.word 0xf9002234
.word 0xaa1303e0
.word 0xa9bf7ffe
bl _LEPUS_ThrowTypeError
.word 0xa8c17ffe
.word 0xf85b83b1
.word 0xf9002234
b __exception_handler_entry
Label_215:
.word 0x38401ec8
.word 0x91079108
.word 0xf8685aa9
.word 0xd61f0120
.global _dispatch_table_0_44
_dispatch_table_0_44:
.word 0xa9ff0680
.word 0xf8008680
.word 0xf8008681
.word 0xf85b83b1
.word 0xf9002234
.word 0xaa0103e2
.word 0xaa0003e1
.word 0xaa1303e0
.word 0xa9bf7ffe
bl _JS_CheckBrand_GC
.word 0xa8c17ffe
.word 0x7100001f
b.GE Label_218
.word 0x910006d6
.word 0xf85b83b1
.word 0xf9002234
b __exception_handler_entry
Label_218:
.word 0x38401ec8
.word 0x91000108
.word 0xf8685aa9
.word 0xd61f0120
.global _dispatch_table_1_44
_dispatch_table_1_44:
.word 0xaa0003e1
.word 0xf85f8e80
.global _dispatch_table_2_44
_dispatch_table_2_44:
.word 0xf8008680
.word 0xf8008681
.word 0xf85b83b1
.word 0xf9002234
.word 0xaa0103e2
.word 0xaa0003e1
.word 0xaa1303e0
.word 0xa9bf7ffe
bl _JS_CheckBrand_GC
.word 0xa8c17ffe
.word 0x7100001f
b.GE Label_219
.word 0x910006d6
.word 0xf85b83b1
.word 0xf9002234
b __exception_handler_entry
Label_219:
.word 0x38401ec8
.word 0x91000108
.word 0xf8685aa9
.word 0xd61f0120
.global _dispatch_table_0_45
_dispatch_table_0_45:
.word 0xa9ff0680
.word 0xf8008680
.word 0xf8008681
.word 0xf85b83b1
.word 0xf9002234
.word 0xaa0103e2
.word 0xaa0003e1
.word 0xaa1303e0
.word 0xa9bf7ffe
bl _JS_AddBrand_GC
.word 0xa8c17ffe
.word 0x7100001f
b.GE Label_220
.word 0x910006d6
.word 0xf85b83b1
.word 0xf9002234
b __exception_handler_entry
Label_220:
.word 0xd1002294
.word 0xd1002294
.word 0x38401ec8
.word 0x91000108
.word 0xf8685aa9
.word 0xd61f0120
.global _dispatch_table_1_45
_dispatch_table_1_45:
.word 0xaa0003e1
.word 0xf85f8e80
.global _dispatch_table_2_45
_dispatch_table_2_45:
.word 0xf8008680
.word 0xf8008681
.word 0xf85b83b1
.word 0xf9002234
.word 0xaa0103e2
.word 0xaa0003e1
.word 0xaa1303e0
.word 0xa9bf7ffe
bl _JS_AddBrand_GC
.word 0xa8c17ffe
.word 0x7100001f
b.GE Label_221
.word 0x910006d6
.word 0xf85b83b1
.word 0xf9002234
b __exception_handler_entry
Label_221:
.word 0xd1002294
.word 0xd1002294
.word 0x38401ec8
.word 0x91000108
.word 0xf8685aa9
.word 0xd61f0120
.global _dispatch_table_1_46
_dispatch_table_1_46:
.word 0xf8008680
.word 0xf85b83b1
.word 0xf9002234
.word 0xd2800240
.word 0x910006d6
.word 0xf85b83b1
.word 0xf9001a36
.word 0xf9002234
.word 0xf9400228
.word 0xf9401269
.word 0xf9007928
.word 0xf94007be
.cfi_startproc
.word 0x910003bf
.word 0xa8c17bfd
.cfi_def_cfa x29,  16
.cfi_offset x29, -16
.cfi_offset x30, -8
.cfi_endproc
.word 0xd65f03c0
.word 0x38401ec8
.word 0x91000108
.word 0xf8685aa9
.word 0xd61f0120
.global _dispatch_table_2_46
_dispatch_table_2_46:
.word 0xa8810680
.word 0xf85b83b1
.word 0xf9002234
.global _dispatch_table_0_46
_dispatch_table_0_46:
.word 0xd2800240
.word 0x910006d6
.word 0xf85b83b1
.word 0xf9001a36
.word 0xf9002234
.word 0xf9400228
.word 0xf9401269
.word 0xf9007928
.word 0xf94007be
.cfi_startproc
.word 0x910003bf
.word 0xa8c17bfd
.cfi_def_cfa x29,  16
.cfi_offset x29, -16
.cfi_offset x30, -8
.cfi_endproc
.word 0xd65f03c0
.word 0x38401ec8
.word 0x91000108
.word 0xf8685aa9
.word 0xd61f0120
.global _dispatch_table_2_47
_dispatch_table_2_47:
.word 0xf8008680
.word 0xaa0103e0
.word 0xf85b83b1
.word 0xf9002234
.word 0xaa0003e1
.word 0xaa1303e0
.word 0xa9bf7ffe
bl _LEPUS_Throw
.word 0xa8c17ffe
.word 0x910006d6
b __exception_handler_entry
.word 0x38401ec8
.word 0x91000108
.word 0xf8685aa9
.word 0xd61f0120
.global _dispatch_table_0_47
_dispatch_table_0_47:
.word 0xf85f8e80
.global _dispatch_table_1_47
_dispatch_table_1_47:
.word 0xaa0003e1
.word 0xaa1303e0
.word 0xa9bf7ffe
bl _LEPUS_Throw
.word 0xa8c17ffe
.word 0x910006d6
b __exception_handler_entry
.word 0x38401ec8
.word 0x91000108
.word 0xf8685aa9
.word 0xd61f0120
.global _dispatch_table_1_48
_dispatch_table_1_48:
.word 0xf8008680
.word 0xf85b83b1
.word 0xf9002234
.word 0xb84012c8
.word 0x394016c9
.word 0xf85b83b1
.word 0xf9002234
.word 0xf100013f
b.NE Label_222
.word 0xb27203e1
.word 0xaa0803e2
.word 0xaa1303e0
.word 0xa9bf7ffe
bl _JS_ThrowTypeErrorReadOnly
.word 0xa8c17ffe
.word 0x91001ad6
b __exception_handler_entry
Label_222:
.word 0xf100053f
b.NE Label_223
.word 0xaa0803e1
.word 0xaa1303e0
.word 0xa9bf7ffe
bl _JS_ThrowSyntaxErrorVarRedeclaration_GC
.word 0xa8c17ffe
.word 0x91001ad6
b __exception_handler_entry
Label_223:
.word 0xf100093f
b.NE Label_224
.word 0xaa0803e1
.word 0xaa1303e0
.word 0xa9bf7ffe
bl _JS_ThrowReferenceErrorUninitialized_GC
.word 0xa8c17ffe
.word 0x91001ad6
b __exception_handler_entry
Label_224:
.word 0xf1000d3f
b.NE Label_225
adr x1, Label_227
b Label_228
Label_227:
.asciz "unsupported reference to 'super'"
.align 3
Label_228:
.word 0xaa1303e0
.word 0xa9bf7ffe
bl _LEPUS_ThrowReferenceError
.word 0xa8c17ffe
.word 0x91001ad6
b __exception_handler_entry
Label_225:
.word 0xf100113f
b.NE Label_226
adr x1, Label_229
b Label_230
Label_229:
.asciz "iterator does not have a throw method"
.align 3
Label_230:
.word 0xaa1303e0
.word 0xa9bf7ffe
bl _LEPUS_ThrowTypeError
.word 0xa8c17ffe
.word 0x91001ad6
b __exception_handler_entry
Label_226:
adr x1, Label_231
b Label_232
Label_231:
.asciz "invalid throw var type %d"
.align 3
Label_232:
.word 0xaa0903e2
.word 0xaa1303e0
.word 0xa9bf7ffe
bl _LEPUS_ThrowInternalError
.word 0xa8c17ffe
.word 0x91001ad6
b __exception_handler_entry
.word 0x38406ec8
.word 0x91000108
.word 0xf8685aa9
.word 0xd61f0120
.global _dispatch_table_2_48
_dispatch_table_2_48:
.word 0xa8810680
.word 0xf85b83b1
.word 0xf9002234
.global _dispatch_table_0_48
_dispatch_table_0_48:
.word 0xb84012c8
.word 0x394016c9
.word 0xf85b83b1
.word 0xf9002234
.word 0xf100013f
b.NE Label_233
.word 0xb27203e1
.word 0xaa0803e2
.word 0xaa1303e0
.word 0xa9bf7ffe
bl _JS_ThrowTypeErrorReadOnly
.word 0xa8c17ffe
.word 0x91001ad6
b __exception_handler_entry
Label_233:
.word 0xf100053f
b.NE Label_234
.word 0xaa0803e1
.word 0xaa1303e0
.word 0xa9bf7ffe
bl _JS_ThrowSyntaxErrorVarRedeclaration_GC
.word 0xa8c17ffe
.word 0x91001ad6
b __exception_handler_entry
Label_234:
.word 0xf100093f
b.NE Label_235
.word 0xaa0803e1
.word 0xaa1303e0
.word 0xa9bf7ffe
bl _JS_ThrowReferenceErrorUninitialized_GC
.word 0xa8c17ffe
.word 0x91001ad6
b __exception_handler_entry
Label_235:
.word 0xf1000d3f
b.NE Label_236
adr x1, Label_238
b Label_239
Label_238:
.asciz "unsupported reference to 'super'"
.align 3
Label_239:
.word 0xaa1303e0
.word 0xa9bf7ffe
bl _LEPUS_ThrowReferenceError
.word 0xa8c17ffe
.word 0x91001ad6
b __exception_handler_entry
Label_236:
.word 0xf100113f
b.NE Label_237
adr x1, Label_240
b Label_241
Label_240:
.asciz "iterator does not have a throw method"
.align 3
Label_241:
.word 0xaa1303e0
.word 0xa9bf7ffe
bl _LEPUS_ThrowTypeError
.word 0xa8c17ffe
.word 0x91001ad6
b __exception_handler_entry
Label_237:
adr x1, Label_242
b Label_243
Label_242:
.asciz "invalid throw var type %d"
.align 3
Label_243:
.word 0xaa0903e2
.word 0xaa1303e0
.word 0xa9bf7ffe
bl _LEPUS_ThrowInternalError
.word 0xa8c17ffe
.word 0x91001ad6
b __exception_handler_entry
.word 0x38406ec8
.word 0x91000108
.word 0xf8685aa9
.word 0xd61f0120
.global _dispatch_table_2_49
_dispatch_table_2_49:
.word 0xf8008680
.word 0xaa0103e0
.word 0xf85b83b1
.word 0xf9002234
.word 0x784012c1
.word 0x51000421
.word 0xf8008680
.word 0xf85b83b1
.word 0xf9002234
.word 0xaa0003e2
.word 0xaa1303e0
.word 0xa9bf7ffe
bl _prim_js_op_eval_gc
.word 0xa8c17ffe
.word 0xd1002294
.word 0xf102081f
b.NE Label_244
.word 0x91000ed6
.word 0xf85b83b1
.word 0xf9002234
b __exception_handler_entry
Label_244:
.word 0x38403ec8
.word 0x9103c908
.word 0xf8685aa9
.word 0xd61f0120
.global _dispatch_table_0_49
_dispatch_table_0_49:
.word 0xf85f8e80
.global _dispatch_table_1_49
_dispatch_table_1_49:
.word 0x784012c1
.word 0x51000421
.word 0xf8008680
.word 0xf85b83b1
.word 0xf9002234
.word 0xaa0003e2
.word 0xaa1303e0
.word 0xa9bf7ffe
bl _prim_js_op_eval_gc
.word 0xa8c17ffe
.word 0xd1002294
.word 0xf102081f
b.NE Label_245
.word 0x91000ed6
.word 0xf85b83b1
.word 0xf9002234
b __exception_handler_entry
Label_245:
.word 0x38403ec8
.word 0x9103c908
.word 0xf8685aa9
.word 0xd61f0120
.global _dispatch_table_0_50
_dispatch_table_0_50:
.word 0xa9ff0680
.word 0xd2800248
.word 0xf8008680
.word 0xf8008681
.word 0xf85b83b1
.word 0xf9002234
.word 0xaa0103e3
.word 0xaa0003e2
.word 0xaa0803e1
.word 0xaa1303e0
.word 0xa9bf7ffe
bl _js_regexp_constructor_internal_gc
.word 0xa8c17ffe
.word 0xd1002294
.word 0xd1002294
.word 0x38401ec8
.word 0x9103c908
.word 0xf8685aa9
.word 0xd61f0120
.global _dispatch_table_1_50
_dispatch_table_1_50:
.word 0xaa0003e1
.word 0xf85f8e80
.global _dispatch_table_2_50
_dispatch_table_2_50:
.word 0xd2800248
.word 0xf8008680
.word 0xf8008681
.word 0xf85b83b1
.word 0xf9002234
.word 0xaa0103e3
.word 0xaa0003e2
.word 0xaa0803e1
.word 0xaa1303e0
.word 0xa9bf7ffe
bl _js_regexp_constructor_internal_gc
.word 0xa8c17ffe
.word 0xd1002294
.word 0xd1002294
.word 0x38401ec8
.word 0x9103c908
.word 0xf8685aa9
.word 0xd61f0120
.global _dispatch_table_2_51
_dispatch_table_2_51:
.word 0xf8008680
.word 0xaa0103e0
.word 0xf85b83b1
.word 0xf9002234
.word 0xf8008680
.word 0xf85b83b1
.word 0xf9002234
.word 0xaa0003e1
.word 0xaa1303e0
.word 0xa9bf7ffe
bl _primjs_get_super_ctor_gc
.word 0xa8c17ffe
.word 0xd1002294
.word 0xf102081f
b.NE Label_246
.word 0x910006d6
.word 0xf85b83b1
.word 0xf9002234
b __exception_handler_entry
Label_246:
.word 0x38401ec8
.word 0x9103c908
.word 0xf8685aa9
.word 0xd61f0120
.global _dispatch_table_0_51
_dispatch_table_0_51:
.word 0xf85f8e80
.global _dispatch_table_1_51
_dispatch_table_1_51:
.word 0xf8008680
.word 0xf85b83b1
.word 0xf9002234
.word 0xaa0003e1
.word 0xaa1303e0
.word 0xa9bf7ffe
bl _primjs_get_super_ctor_gc
.word 0xa8c17ffe
.word 0xd1002294
.word 0xf102081f
b.NE Label_247
.word 0x910006d6
.word 0xf85b83b1
.word 0xf9002234
b __exception_handler_entry
Label_247:
.word 0x38401ec8
.word 0x9103c908
.word 0xf8685aa9
.word 0xd61f0120
.global _dispatch_table_2_52
_dispatch_table_2_52:
.word 0xf8008680
.word 0xaa0103e0
.word 0xf85b83b1
.word 0xf9002234
.word 0xaa0003f9
.word 0xf8008680
.word 0xf85b83b1
.word 0xf9002234
.word 0xaa1903e1
.word 0xaa1303e0
.word 0xa9bf7ffe
bl _LEPUS_GetPrototype
.word 0xa8c17ffe
.word 0xd1002294
.word 0xf102081f
b.NE Label_248
.word 0x910006d6
.word 0xf85b83b1
.word 0xf9002234
b __exception_handler_entry
Label_248:
.word 0x38401ec8
.word 0x9103c908
.word 0xf8685aa9
.word 0xd61f0120
.global _dispatch_table_0_52
_dispatch_table_0_52:
.word 0xf85f8e80
.global _dispatch_table_1_52
_dispatch_table_1_52:
.word 0xaa0003f9
.word 0xf8008680
.word 0xf85b83b1
.word 0xf9002234
.word 0xaa1903e1
.word 0xaa1303e0
.word 0xa9bf7ffe
bl _LEPUS_GetPrototype
.word 0xa8c17ffe
.word 0xd1002294
.word 0xf102081f
b.NE Label_249
.word 0x910006d6
.word 0xf85b83b1
.word 0xf9002234
b __exception_handler_entry
Label_249:
.word 0x38401ec8
.word 0x9103c908
.word 0xf8685aa9
.word 0xd61f0120
.global _dispatch_table_2_53
_dispatch_table_2_53:
.word 0xf8008680
.word 0xaa0103e0
.word 0xf85b83b1
.word 0xf9002234
.word 0xf8008680
.word 0xf85b83b1
.word 0xf9002234
.word 0xaa0003e1
.word 0xaa1303e0
.word 0xa9bf7ffe
bl _js_dynamic_import
.word 0xa8c17ffe
.word 0xd1002294
.word 0xf102081f
b.NE Label_250
.word 0x910006d6
.word 0xf85b83b1
.word 0xf9002234
b __exception_handler_entry
Label_250:
.word 0x38401ec8
.word 0x9103c908
.word 0xf8685aa9
.word 0xd61f0120
.global _dispatch_table_0_53
_dispatch_table_0_53:
.word 0xf85f8e80
.global _dispatch_table_1_53
_dispatch_table_1_53:
.word 0xf8008680
.word 0xf85b83b1
.word 0xf9002234
.word 0xaa0003e1
.word 0xaa1303e0
.word 0xa9bf7ffe
bl _js_dynamic_import
.word 0xa8c17ffe
.word 0xd1002294
.word 0xf102081f
b.NE Label_251
.word 0x910006d6
.word 0xf85b83b1
.word 0xf9002234
b __exception_handler_entry
Label_251:
.word 0x38401ec8
.word 0x9103c908
.word 0xf8685aa9
.word 0xd61f0120
.global _dispatch_table_0_54
_dispatch_table_0_54:
.word 0xb84012c1
.word 0xf85b83b1
.word 0xf9002234
.word 0xaa1303e0
.word 0xa9bf7ffe
bl _JS_CheckGlobalVar_GC
.word 0xa8c17ffe
.word 0x7100001f
b.GE Label_252
.word 0x910016d6
.word 0xf85b83b1
.word 0xf9002234
b __exception_handler_entry
Label_252:
.word 0xf100041f
b.NE Label_253
.word 0xb2400be0
b Label_254
Label_253:
.word 0xb27f07e0
Label_254:
.word 0x38405ec8
.word 0x9103c908
.word 0xf8685aa9
.word 0xd61f0120
.global _dispatch_table_1_54
_dispatch_table_1_54:
.word 0xaa0003f9
.word 0xb84012c1
.word 0xf8008680
.word 0xf85b83b1
.word 0xf9002234
.word 0xaa1303e0
.word 0xa9bf7ffe
bl _JS_CheckGlobalVar_GC
.word 0xa8c17ffe
.word 0xd1002294
.word 0x7100001f
b.GE Label_256
.word 0xf8008699
.word 0x910016d6
.word 0xf85b83b1
.word 0xf9002234
b __exception_handler_entry
Label_256:
.word 0xf100041f
b.NE Label_257
.word 0xb2400be0
b Label_258
Label_257:
.word 0xb27f07e0
Label_258:
.word 0xaa0003e1
.word 0xaa1903e0
.word 0x38405ec8
.word 0x91079108
.word 0xf8685aa9
.word 0xd61f0120
.global _dispatch_table_2_54
_dispatch_table_2_54:
.word 0xf8008680
.word 0xaa0103f9
.word 0xb84012c1
.word 0xf8008681
.word 0xf85b83b1
.word 0xf9002234
.word 0xaa1303e0
.word 0xa9bf7ffe
bl _JS_CheckGlobalVar_GC
.word 0xa8c17ffe
.word 0xd1002294
.word 0x7100001f
b.GE Label_260
.word 0xf8008699
.word 0x910016d6
.word 0xf85b83b1
.word 0xf9002234
b __exception_handler_entry
Label_260:
.word 0xf100041f
b.NE Label_261
.word 0xb2400be0
b Label_262
Label_261:
.word 0xb27f07e0
Label_262:
.word 0xaa0003e1
.word 0xaa1903e0
.word 0x38405ec8
.word 0x91079108
.word 0xf8685aa9
.word 0xd61f0120
.global _dispatch_table_0_55
_dispatch_table_0_55:
.word 0xf85b83b1
.word 0xf9002234
.word 0xb84012c1
.word 0xd2800002
.word 0xd2800003
.word 0xaa1303e0
.word 0xa9bf7ffe
bl _JS_GetGlobalVarImpl_GC
.word 0xa8c17ffe
.word 0xf102081f
b.NE Label_263
.word 0x910016d6
.word 0xf85b83b1
.word 0xf9002234
b __exception_handler_entry
Label_263:
.word 0x38405ec8
.word 0x9103c908
.word 0xf8685aa9
.word 0xd61f0120
.global _dispatch_table_1_55
_dispatch_table_1_55:
.word 0xf8008680
.word 0xf85b83b1
.word 0xf9002234
.word 0xb84012c1
.word 0xd2800002
.word 0xd2800003
.word 0xaa1303e0
.word 0xa9bf7ffe
bl _JS_GetGlobalVarImpl_GC
.word 0xa8c17ffe
.word 0xf102081f
b.NE Label_264
.word 0x910016d6
.word 0xf85b83b1
.word 0xf9002234
b __exception_handler_entry
Label_264:
.word 0xaa0003e1
.word 0xf85f8e80
.word 0x38405ec8
.word 0x91079108
.word 0xf8685aa9
.word 0xd61f0120
.global _dispatch_table_2_55
_dispatch_table_2_55:
.word 0xa8810680
.word 0xf85b83b1
.word 0xf9002234
.word 0xb84012c1
.word 0xd2800002
.word 0xd2800003
.word 0xaa1303e0
.word 0xa9bf7ffe
bl _JS_GetGlobalVarImpl_GC
.word 0xa8c17ffe
.word 0xf102081f
b.NE Label_265
.word 0x910016d6
.word 0xf85b83b1
.word 0xf9002234
b __exception_handler_entry
Label_265:
.word 0xaa0003e1
.word 0xf85f8e80
.word 0x38405ec8
.word 0x91079108
.word 0xf8685aa9
.word 0xd61f0120
.global _dispatch_table_0_56
_dispatch_table_0_56:
.word 0xf85b83b1
.word 0xf9002234
.word 0xb84012c1
.word 0xb24003e2
.word 0xd2800003
.word 0xaa1303e0
.word 0xa9bf7ffe
bl _JS_GetGlobalVarImpl_GC
.word 0xa8c17ffe
.word 0xf102081f
b.NE Label_266
.word 0x910016d6
.word 0xf85b83b1
.word 0xf9002234
b __exception_handler_entry
Label_266:
.word 0x38405ec8
.word 0x9103c908
.word 0xf8685aa9
.word 0xd61f0120
.global _dispatch_table_1_56
_dispatch_table_1_56:
.word 0xf8008680
.word 0xf85b83b1
.word 0xf9002234
.word 0xb84012c1
.word 0xb24003e2
.word 0xd2800003
.word 0xaa1303e0
.word 0xa9bf7ffe
bl _JS_GetGlobalVarImpl_GC
.word 0xa8c17ffe
.word 0xf102081f
b.NE Label_267
.word 0x910016d6
.word 0xf85b83b1
.word 0xf9002234
b __exception_handler_entry
Label_267:
.word 0xaa0003e1
.word 0xf85f8e80
.word 0x38405ec8
.word 0x91079108
.word 0xf8685aa9
.word 0xd61f0120
.global _dispatch_table_2_56
_dispatch_table_2_56:
.word 0xa8810680
.word 0xf85b83b1
.word 0xf9002234
.word 0xb84012c1
.word 0xb24003e2
.word 0xd2800003
.word 0xaa1303e0
.word 0xa9bf7ffe
bl _JS_GetGlobalVarImpl_GC
.word 0xa8c17ffe
.word 0xf102081f
b.NE Label_268
.word 0x910016d6
.word 0xf85b83b1
.word 0xf9002234
b __exception_handler_entry
Label_268:
.word 0xaa0003e1
.word 0xf85f8e80
.word 0x38405ec8
.word 0x91079108
.word 0xf8685aa9
.word 0xd61f0120
.global _dispatch_table_0_57
_dispatch_table_0_57:
.word 0xd2800003
.word 0xf85f8e80
.word 0xb84012c1
.word 0xf8008680
.word 0xf85b83b1
.word 0xf9002234
.word 0xaa0003e2
.word 0xaa1303e0
.word 0xa9bf7ffe
bl _LEPUS_SetGlobalVar
.word 0xa8c17ffe
.word 0xd1002294
.word 0x7100001f
b.GE Label_269
.word 0x910016d6
.word 0xf85b83b1
.word 0xf9002234
b __exception_handler_entry
Label_269:
.word 0x38405ec8
.word 0x91000108
.word 0xf8685aa9
.word 0xd61f0120
.global _dispatch_table_1_57
_dispatch_table_1_57:
.word 0xd2800003
.word 0xb84012c1
.word 0xf8008680
.word 0xf85b83b1
.word 0xf9002234
.word 0xaa0003e2
.word 0xaa1303e0
.word 0xa9bf7ffe
bl _LEPUS_SetGlobalVar
.word 0xa8c17ffe
.word 0xd1002294
.word 0x7100001f
b.GE Label_270
.word 0x910016d6
.word 0xf85b83b1
.word 0xf9002234
b __exception_handler_entry
Label_270:
.word 0x38405ec8
.word 0x91000108
.word 0xf8685aa9
.word 0xd61f0120
.global _dispatch_table_2_57
_dispatch_table_2_57:
.word 0xd2800003
.word 0xaa0003f9
.word 0xb84012c8
.word 0xf8008680
.word 0xf8008681
.word 0xf85b83b1
.word 0xf9002234
.word 0xaa0103e2
.word 0xaa0803e1
.word 0xaa1303e0
.word 0xa9bf7ffe
bl _LEPUS_SetGlobalVar
.word 0xa8c17ffe
.word 0xd1002294
.word 0xd1002294
.word 0x7100001f
b.GE Label_272
.word 0xf8008699
.word 0x910016d6
.word 0xf85b83b1
.word 0xf9002234
b __exception_handler_entry
Label_272:
.word 0xaa1903e0
.word 0x38405ec8
.word 0x9103c908
.word 0xf8685aa9
.word 0xd61f0120
.global _dispatch_table_0_58
_dispatch_table_0_58:
.word 0xb24003e3
.word 0xf85f8e80
.word 0xb84012c1
.word 0xf85b83b1
.word 0xf9002234
.word 0xaa0003e2
.word 0xaa1303e0
.word 0xa9bf7ffe
bl _LEPUS_SetGlobalVar
.word 0xa8c17ffe
.word 0x7100001f
b.GE Label_273
.word 0x910016d6
.word 0xf85b83b1
.word 0xf9002234
b __exception_handler_entry
Label_273:
.word 0x38405ec8
.word 0x91000108
.word 0xf8685aa9
.word 0xd61f0120
.global _dispatch_table_1_58
_dispatch_table_1_58:
.word 0xb24003e3
.word 0xb84012c1
.word 0xf8008680
.word 0xf85b83b1
.word 0xf9002234
.word 0xaa0003e2
.word 0xaa1303e0
.word 0xa9bf7ffe
bl _LEPUS_SetGlobalVar
.word 0xa8c17ffe
.word 0xd1002294
.word 0x7100001f
b.GE Label_274
.word 0x910016d6
.word 0xf85b83b1
.word 0xf9002234
b __exception_handler_entry
Label_274:
.word 0x38405ec8
.word 0x91000108
.word 0xf8685aa9
.word 0xd61f0120
.global _dispatch_table_2_58
_dispatch_table_2_58:
.word 0xb24003e3
.word 0xaa0003f9
.word 0xb84012c8
.word 0xf8008680
.word 0xf8008681
.word 0xf85b83b1
.word 0xf9002234
.word 0xaa0103e2
.word 0xaa0803e1
.word 0xaa1303e0
.word 0xa9bf7ffe
bl _LEPUS_SetGlobalVar
.word 0xa8c17ffe
.word 0xd1002294
.word 0xd1002294
.word 0x7100001f
b.GE Label_276
.word 0xf8008699
.word 0x910016d6
.word 0xf85b83b1
.word 0xf9002234
b __exception_handler_entry
Label_276:
.word 0xaa1903e0
.word 0x38405ec8
.word 0x9103c908
.word 0xf8685aa9
.word 0xd61f0120
.global _dispatch_table_0_59
_dispatch_table_0_59:
.word 0xa9ff0680
.word 0xb84012c8
.word 0xb27f07e9
.word 0xeb09001f
b.NE Label_277
.word 0xf8008680
.word 0xf8008681
.word 0xf85b83b1
.word 0xf9002234
.word 0xaa0803e1
.word 0xaa1303e0
.word 0xa9bf7ffe
bl _JS_ThrowReferenceErrorNotDefined_GC
.word 0xa8c17ffe
.word 0xd1002294
.word 0xd1002294
.word 0xf85b83b1
.word 0xf9002234
.word 0x910016d6
b __exception_handler_entry
Label_277:
.word 0xb27f03e9
.word 0xf8008680
.word 0xf8008681
.word 0xf85b83b1
.word 0xf9002234
.word 0xaa0903e3
.word 0xaa0103e2
.word 0xaa0803e1
.word 0xaa1303e0
.word 0xa9bf7ffe
bl _LEPUS_SetGlobalVar
.word 0xa8c17ffe
.word 0xd1002294
.word 0xd1002294
.word 0x7100001f
b.GE Label_278
.word 0x910016d6
.word 0xf85b83b1
.word 0xf9002234
b __exception_handler_entry
Label_278:
.word 0x38405ec8
.word 0x91000108
.word 0xf8685aa9
.word 0xd61f0120
.global _dispatch_table_1_59
_dispatch_table_1_59:
.word 0xaa0003e1
.word 0xf85f8e80
.global _dispatch_table_2_59
_dispatch_table_2_59:
.word 0xb84012c8
.word 0xb27f07e9
.word 0xeb09001f
b.NE Label_279
.word 0xf8008680
.word 0xf8008681
.word 0xf85b83b1
.word 0xf9002234
.word 0xaa0803e1
.word 0xaa1303e0
.word 0xa9bf7ffe
bl _JS_ThrowReferenceErrorNotDefined_GC
.word 0xa8c17ffe
.word 0xd1002294
.word 0xd1002294
.word 0xf85b83b1
.word 0xf9002234
.word 0x910016d6
b __exception_handler_entry
Label_279:
.word 0xb27f03e9
.word 0xf8008680
.word 0xf8008681
.word 0xf85b83b1
.word 0xf9002234
.word 0xaa0903e3
.word 0xaa0103e2
.word 0xaa0803e1
.word 0xaa1303e0
.word 0xa9bf7ffe
bl _LEPUS_SetGlobalVar
.word 0xa8c17ffe
.word 0xd1002294
.word 0xd1002294
.word 0x7100001f
b.GE Label_280
.word 0x910016d6
.word 0xf85b83b1
.word 0xf9002234
b __exception_handler_entry
Label_280:
.word 0x38405ec8
.word 0x91000108
.word 0xf8685aa9
.word 0xd61f0120
.global _dispatch_table_0_60
_dispatch_table_0_60:
.word 0xa9ff0680
.word 0xf100481f
b.NE Label_281
.word 0xf8008680
.word 0xf8008681
.word 0xf85b83b1
.word 0xf9002234
.word 0xaa1303e0
.word 0xa9bf7ffe
bl _js_value_to_atom_gc
.word 0xa8c17ffe
.word 0xf100001f
b.EQ Label_282
.word 0xaa0003f9
.word 0xf85b83b1
.word 0xf9002234
.word 0xaa0003e1
.word 0xaa1303e0
.word 0xa9bf7ffe
bl _JS_ThrowReferenceErrorNotDefined_GC
.word 0xa8c17ffe
Label_282:
.word 0xf85b83b1
.word 0xf9002234
.word 0x910006d6
b __exception_handler_entry
Label_281:
.word 0xaa0103f9
.word 0xf8008680
.word 0xf8008681
.word 0xf85b83b1
.word 0xf9002234
.word 0xaa0103e2
.word 0xaa0003e1
.word 0xaa1303e0
.word 0xa9bf7ffe
bl _JS_GetPropertyValue_GC
.word 0xa8c17ffe
.word 0xd1002294
.word 0xf102081f
b.NE Label_283
.word 0x910006d6
.word 0xf85b83b1
.word 0xf9002234
b __exception_handler_entry
Label_283:
.word 0xaa0003e1
.word 0xaa1903e0
.word 0x38401ec8
.word 0x91079108
.word 0xf8685aa9
.word 0xd61f0120
.global _dispatch_table_1_60
_dispatch_table_1_60:
.word 0xaa0003e1
.word 0xf85f8e80
.global _dispatch_table_2_60
_dispatch_table_2_60:
.word 0xf100481f
b.NE Label_284
.word 0xf8008680
.word 0xf8008681
.word 0xf85b83b1
.word 0xf9002234
.word 0xaa1303e0
.word 0xa9bf7ffe
bl _js_value_to_atom_gc
.word 0xa8c17ffe
.word 0xf100001f
b.EQ Label_285
.word 0xaa0003f9
.word 0xf85b83b1
.word 0xf9002234
.word 0xaa0003e1
.word 0xaa1303e0
.word 0xa9bf7ffe
bl _JS_ThrowReferenceErrorNotDefined_GC
.word 0xa8c17ffe
Label_285:
.word 0xf85b83b1
.word 0xf9002234
.word 0x910006d6
b __exception_handler_entry
Label_284:
.word 0xaa0103f9
.word 0xf8008680
.word 0xf8008681
.word 0xf85b83b1
.word 0xf9002234
.word 0xaa0103e2
.word 0xaa0003e1
.word 0xaa1303e0
.word 0xa9bf7ffe
bl _JS_GetPropertyValue_GC
.word 0xa8c17ffe
.word 0xd1002294
.word 0xf102081f
b.NE Label_286
.word 0x910006d6
.word 0xf85b83b1
.word 0xf9002234
b __exception_handler_entry
Label_286:
.word 0xaa0003e1
.word 0xaa1903e0
.word 0x38401ec8
.word 0x91079108
.word 0xf8685aa9
.word 0xd61f0120
.global _dispatch_table_0_61
_dispatch_table_0_61:
.word 0xa9ff0680
.word 0xf85f8e99
.word 0xf1004b3f
b.NE Label_287
.word 0xf85e83ac
.word 0xf9401988
.word 0x39401508
.word 0x7200011f
b.EQ Label_288
.word 0xf8008699
.word 0xf8008680
.word 0xf8008681
.word 0xf85b83b1
.word 0xf9002234
.word 0xaa0003e1
.word 0xaa1303e0
.word 0xa9bf7ffe
bl _js_value_to_atom_gc
.word 0xa8c17ffe
.word 0xf100001f
b.EQ Label_290
.word 0xaa0003f9
.word 0xf85b83b1
.word 0xf9002234
.word 0xaa0003e1
.word 0xaa1303e0
.word 0xa9bf7ffe
bl _JS_ThrowReferenceErrorNotDefined_GC
.word 0xa8c17ffe
Label_290:
.word 0xf85b83b1
.word 0xf9002234
.word 0x910006d6
b __exception_handler_entry
b Label_289
Label_288:
.word 0xf9406e79
Label_289:
Label_287:
.word 0xb27103e4
.word 0xf8008699
.word 0xf8008680
.word 0xf8008681
.word 0xf85b83b1
.word 0xf9002234
.word 0xaa0103e3
.word 0xaa0003e2
.word 0xaa1903e1
.word 0xaa1303e0
.word 0xa9bf7ffe
bl _JS_SetPropertyValue_GC
.word 0xa8c17ffe
.word 0xd1002294
.word 0xd1002294
.word 0xd1002294
.word 0xf102081f
b.NE Label_291
.word 0x910006d6
.word 0xf85b83b1
.word 0xf9002234
b __exception_handler_entry
Label_291:
.word 0x38401ec8
.word 0x91000108
.word 0xf8685aa9
.word 0xd61f0120
.global _dispatch_table_1_61
_dispatch_table_1_61:
.word 0xaa0003e1
.word 0xf85f8e80
.global _dispatch_table_2_61
_dispatch_table_2_61:
.word 0xf85f8e99
.word 0xf1004b3f
b.NE Label_292
.word 0xf85e83ac
.word 0xf9401988
.word 0x39401508
.word 0x7200011f
b.EQ Label_293
.word 0xf8008699
.word 0xf8008680
.word 0xf8008681
.word 0xf85b83b1
.word 0xf9002234
.word 0xaa0003e1
.word 0xaa1303e0
.word 0xa9bf7ffe
bl _js_value_to_atom_gc
.word 0xa8c17ffe
.word 0xf100001f
b.EQ Label_295
.word 0xaa0003f9
.word 0xf85b83b1
.word 0xf9002234
.word 0xaa0003e1
.word 0xaa1303e0
.word 0xa9bf7ffe
bl _JS_ThrowReferenceErrorNotDefined_GC
.word 0xa8c17ffe
Label_295:
.word 0xf85b83b1
.word 0xf9002234
.word 0x910006d6
b __exception_handler_entry
b Label_294
Label_293:
.word 0xf9406e79
Label_294:
Label_292:
.word 0xb27103e4
.word 0xf8008699
.word 0xf8008680
.word 0xf8008681
.word 0xf85b83b1
.word 0xf9002234
.word 0xaa0103e3
.word 0xaa0003e2
.word 0xaa1903e1
.word 0xaa1303e0
.word 0xa9bf7ffe
bl _JS_SetPropertyValue_GC
.word 0xa8c17ffe
.word 0xd1002294
.word 0xd1002294
.word 0xd1002294
.word 0xf102081f
b.NE Label_296
.word 0x910006d6
.word 0xf85b83b1
.word 0xf9002234
b __exception_handler_entry
Label_296:
.word 0x38401ec8
.word 0x91000108
.word 0xf8685aa9
.word 0xd61f0120
.global _dispatch_table_0_62
_dispatch_table_0_62:
.word 0xb84012c1
.word 0x394016c2
.word 0xf85b83b1
.word 0xf9002234
.word 0xaa1303e0
.word 0xa9bf7ffe
bl _JS_DefineGlobalVar_GC
.word 0xa8c17ffe
.word 0x7100001f
b.GE Label_297
.word 0x91001ad6
.word 0xf85b83b1
.word 0xf9002234
b __exception_handler_entry
Label_297:
.word 0x38406ec8
.word 0x91000108
.word 0xf8685aa9
.word 0xd61f0120
.global _dispatch_table_1_62
_dispatch_table_1_62:
.word 0xaa0003f9
.word 0xb84012c1
.word 0xf8008680
.word 0x394016c2
.word 0xf85b83b1
.word 0xf9002234
.word 0xaa1303e0
.word 0xa9bf7ffe
bl _JS_DefineGlobalVar_GC
.word 0xa8c17ffe
.word 0xd1002294
.word 0x7100001f
b.GE Label_299
.word 0xf8008699
.word 0x91001ad6
.word 0xf85b83b1
.word 0xf9002234
b __exception_handler_entry
Label_299:
.word 0xaa1903e0
.word 0x38406ec8
.word 0x9103c908
.word 0xf8685aa9
.word 0xd61f0120
.global _dispatch_table_2_62
_dispatch_table_2_62:
.word 0xf8008680
.word 0xaa0103f9
.word 0xb84012c1
.word 0x394016c2
.word 0xf8008681
.word 0xf85b83b1
.word 0xf9002234
.word 0xaa1303e0
.word 0xa9bf7ffe
bl _JS_DefineGlobalVar_GC
.word 0xa8c17ffe
.word 0xd1002294
.word 0x7100001f
b.GE Label_301
.word 0xf8008699
.word 0x91001ad6
.word 0xf85b83b1
.word 0xf9002234
b __exception_handler_entry
Label_301:
.word 0xaa1903e1
.word 0xf85f8e80
.word 0x38406ec8
.word 0x91079108
.word 0xf8685aa9
.word 0xd61f0120
.global _dispatch_table_0_63
_dispatch_table_0_63:
.word 0xb84012c1
.word 0x394016c2
.word 0xf85b83b1
.word 0xf9002234
.word 0xaa1303e0
.word 0xa9bf7ffe
bl _JS_CheckDefineGlobalVar_GC
.word 0xa8c17ffe
.word 0x7100001f
b.GE Label_302
.word 0x91001ad6
.word 0xf85b83b1
.word 0xf9002234
b __exception_handler_entry
Label_302:
.word 0x38406ec8
.word 0x91000108
.word 0xf8685aa9
.word 0xd61f0120
.global _dispatch_table_1_63
_dispatch_table_1_63:
.word 0xaa0003f9
.word 0xb84012c1
.word 0x394016c2
.word 0xf8008680
.word 0xf85b83b1
.word 0xf9002234
.word 0xaa1303e0
.word 0xa9bf7ffe
bl _JS_CheckDefineGlobalVar_GC
.word 0xa8c17ffe
.word 0xd1002294
.word 0x7100001f
b.GE Label_304
.word 0xf8008699
.word 0x91001ad6
.word 0xf85b83b1
.word 0xf9002234
b __exception_handler_entry
Label_304:
.word 0xaa1903e0
.word 0x38406ec8
.word 0x9103c908
.word 0xf8685aa9
.word 0xd61f0120
.global _dispatch_table_2_63
_dispatch_table_2_63:
.word 0xf8008680
.word 0xaa0103f9
.word 0xb84012c1
.word 0x394016c2
.word 0xf8008681
.word 0xf85b83b1
.word 0xf9002234
.word 0xaa1303e0
.word 0xa9bf7ffe
bl _JS_CheckDefineGlobalVar_GC
.word 0xa8c17ffe
.word 0xd1002294
.word 0x7100001f
b.GE Label_306
.word 0xf8008699
.word 0x91001ad6
.word 0xf85b83b1
.word 0xf9002234
b __exception_handler_entry
Label_306:
.word 0xaa1903e1
.word 0xf85f8e80
.word 0x38406ec8
.word 0x91079108
.word 0xf8685aa9
.word 0xd61f0120
.global _dispatch_table_2_64
_dispatch_table_2_64:
.word 0xf8008680
.word 0xaa0103e0
.word 0xf85b83b1
.word 0xf9002234
.word 0xaa0003f9
.word 0xb84012c1
.word 0x394016c3
.word 0xf8008680
.word 0xf85b83b1
.word 0xf9002234
.word 0xaa0003e2
.word 0xaa1303e0
.word 0xa9bf7ffe
bl _JS_DefineGlobalFunction_GC
.word 0xa8c17ffe
.word 0xf100001f
b.GE Label_308
.word 0xd1002294
.word 0xf8008699
.word 0x91001ad6
.word 0xf85b83b1
.word 0xf9002234
b __exception_handler_entry
Label_308:
.word 0xd1002294
.word 0x38406ec8
.word 0x91000108
.word 0xf8685aa9
.word 0xd61f0120
.global _dispatch_table_0_64
_dispatch_table_0_64:
.word 0xf85f8e80
.global _dispatch_table_1_64
_dispatch_table_1_64:
.word 0xaa0003f9
.word 0xb84012c1
.word 0x394016c3
.word 0xf8008680
.word 0xf85b83b1
.word 0xf9002234
.word 0xaa0003e2
.word 0xaa1303e0
.word 0xa9bf7ffe
bl _JS_DefineGlobalFunction_GC
.word 0xa8c17ffe
.word 0xf100001f
b.GE Label_310
.word 0xd1002294
.word 0xf8008699
.word 0x91001ad6
.word 0xf85b83b1
.word 0xf9002234
b __exception_handler_entry
Label_310:
.word 0xd1002294
.word 0x38406ec8
.word 0x91000108
.word 0xf8685aa9
.word 0xd61f0120
.global _dispatch_table_0_65
_dispatch_table_0_65:
.word 0xf85f8e80
.word 0xaa0003f9
.word 0xf8008680
.word 0xb84012c2
.word 0xd2800003
.word 0xd2800004
.word 0xf85b83b1
.word 0xf9002234
.word 0xaa0403e5
.word 0xaa0303e4
.word 0xaa0003e3
.word 0xaa0003e1
.word 0xaa1303e0
.word 0xa9bf7ffe
bl _JS_GetPropertyInternalImpl_GC
.word 0xa8c17ffe
.word 0xd1002294
.word 0xf102081f
b.NE Label_312
.word 0xf8008699
.word 0x910016d6
.word 0xf85b83b1
.word 0xf9002234
b __exception_handler_entry
Label_312:
.word 0x38405ec8
.word 0x9103c908
.word 0xf8685aa9
.word 0xd61f0120
.global _dispatch_table_1_65
_dispatch_table_1_65:
.word 0xaa0003f9
.word 0xf8008680
.word 0xb84012c2
.word 0xd2800003
.word 0xd2800004
.word 0xf85b83b1
.word 0xf9002234
.word 0xaa0403e5
.word 0xaa0303e4
.word 0xaa0003e3
.word 0xaa0003e1
.word 0xaa1303e0
.word 0xa9bf7ffe
bl _JS_GetPropertyInternalImpl_GC
.word 0xa8c17ffe
.word 0xd1002294
.word 0xf102081f
b.NE Label_314
.word 0xf8008699
.word 0x910016d6
.word 0xf85b83b1
.word 0xf9002234
b __exception_handler_entry
Label_314:
.word 0x38405ec8
.word 0x9103c908
.word 0xf8685aa9
.word 0xd61f0120
.global _dispatch_table_2_65
_dispatch_table_2_65:
.word 0xf8008680
.word 0xaa0103f9
.word 0xf8008681
.word 0xb84012c2
.word 0xd2800003
.word 0xd2800004
.word 0xf85b83b1
.word 0xf9002234
.word 0xaa0403e5
.word 0xaa0303e4
.word 0xaa0103e3
.word 0xaa1303e0
.word 0xa9bf7ffe
bl _JS_GetPropertyInternalImpl_GC
.word 0xa8c17ffe
.word 0xd1002294
.word 0xf102081f
b.NE Label_316
.word 0xf8008699
.word 0x910016d6
.word 0xf85b83b1
.word 0xf9002234
b __exception_handler_entry
Label_316:
.word 0xaa0003f9
.word 0xaa1903e1
.word 0xf85f8e80
.word 0x38405ec8
.word 0x91079108
.word 0xf8685aa9
.word 0xd61f0120
.global _dispatch_table_2_66
_dispatch_table_2_66:
.word 0xf8008680
.word 0xaa0103e0
.word 0xf85b83b1
.word 0xf9002234
.word 0xb84012c2
.word 0xaa0003f9
.word 0xf8008680
.word 0xf85b83b1
.word 0xf9002234
.word 0xd2800004
.word 0xd2800005
.word 0xaa0003e3
.word 0xaa0003e1
.word 0xaa1303e0
.word 0xa9bf7ffe
bl _JS_GetPropertyInternalImpl_GC
.word 0xa8c17ffe
.word 0xd1002294
.word 0xf102081f
b.NE Label_318
.word 0xf8008699
.word 0x910016d6
.word 0xf85b83b1
.word 0xf9002234
b __exception_handler_entry
Label_318:
.word 0xaa0003e1
.word 0xaa1903e0
.word 0x38405ec8
.word 0x91079108
.word 0xf8685aa9
.word 0xd61f0120
.global _dispatch_table_0_66
_dispatch_table_0_66:
.word 0xf85f8e80
.global _dispatch_table_1_66
_dispatch_table_1_66:
.word 0xb84012c2
.word 0xaa0003f9
.word 0xf8008680
.word 0xf85b83b1
.word 0xf9002234
.word 0xd2800004
.word 0xd2800005
.word 0xaa0003e3
.word 0xaa0003e1
.word 0xaa1303e0
.word 0xa9bf7ffe
bl _JS_GetPropertyInternalImpl_GC
.word 0xa8c17ffe
.word 0xd1002294
.word 0xf102081f
b.NE Label_320
.word 0xf8008699
.word 0x910016d6
.word 0xf85b83b1
.word 0xf9002234
b __exception_handler_entry
Label_320:
.word 0xaa0003e1
.word 0xaa1903e0
.word 0x38405ec8
.word 0x91079108
.word 0xf8685aa9
.word 0xd61f0120
.global _dispatch_table_0_67
_dispatch_table_0_67:
.word 0xa9ff0680
.word 0xb84012c2
.word 0xd2800005
.word 0xb27103e4
.word 0xaa0003f9
.word 0xf8008680
.word 0xf8008681
.word 0xf85b83b1
.word 0xf9002234
.word 0xaa0103e3
.word 0xaa0003e1
.word 0xaa1303e0
.word 0xa9bf7ffe
bl _JS_SetPropertyInternalImpl_GC
.word 0xa8c17ffe
.word 0xd1002294
.word 0xd1002294
.word 0x7100001f
b.GE Label_321
.word 0x910016d6
.word 0xf85b83b1
.word 0xf9002234
b __exception_handler_entry
Label_321:
.word 0x38405ec8
.word 0x91000108
.word 0xf8685aa9
.word 0xd61f0120
.global _dispatch_table_1_67
_dispatch_table_1_67:
.word 0xaa0003e1
.word 0xf85f8e80
.global _dispatch_table_2_67
_dispatch_table_2_67:
.word 0xb84012c2
.word 0xd2800005
.word 0xb27103e4
.word 0xaa0003f9
.word 0xf8008680
.word 0xf8008681
.word 0xf85b83b1
.word 0xf9002234
.word 0xaa0103e3
.word 0xaa0003e1
.word 0xaa1303e0
.word 0xa9bf7ffe
bl _JS_SetPropertyInternalImpl_GC
.word 0xa8c17ffe
.word 0xd1002294
.word 0xd1002294
.word 0x7100001f
b.GE Label_322
.word 0x910016d6
.word 0xf85b83b1
.word 0xf9002234
b __exception_handler_entry
Label_322:
.word 0x38405ec8
.word 0x91000108
.word 0xf8685aa9
.word 0xd61f0120
.global _dispatch_table_0_68
_dispatch_table_0_68:
.word 0xa9ff0680
.word 0xf8008681
.word 0xf8008680
.word 0xf85b83b1
.word 0xf9002234
.word 0xaa0103e2
.word 0xaa0003e1
.word 0xaa1303e0
.word 0xa9bf7ffe
bl _JS_GetPrivateField_GC
.word 0xa8c17ffe
.word 0xaa0003f9
.word 0xf85f8e80
.word 0xf85f8e81
.word 0xaa1903e0
.word 0xf102081f
b.NE Label_324
.word 0xf8008680
.word 0x910006d6
.word 0xf85b83b1
.word 0xf9002234
b __exception_handler_entry
Label_324:
.word 0x38401ec8
.word 0x9103c908
.word 0xf8685aa9
.word 0xd61f0120
.global _dispatch_table_1_68
_dispatch_table_1_68:
.word 0xaa0003e1
.word 0xf85f8e80
.global _dispatch_table_2_68
_dispatch_table_2_68:
.word 0xf8008681
.word 0xf8008680
.word 0xf85b83b1
.word 0xf9002234
.word 0xaa0103e2
.word 0xaa0003e1
.word 0xaa1303e0
.word 0xa9bf7ffe
bl _JS_GetPrivateField_GC
.word 0xa8c17ffe
.word 0xaa0003f9
.word 0xf85f8e80
.word 0xf85f8e81
.word 0xaa1903e0
.word 0xf102081f
b.NE Label_326
.word 0xf8008680
.word 0x910006d6
.word 0xf85b83b1
.word 0xf9002234
b __exception_handler_entry
Label_326:
.word 0x38401ec8
.word 0x9103c908
.word 0xf8685aa9
.word 0xd61f0120
.global _dispatch_table_0_69
_dispatch_table_0_69:
.word 0xa9ff0680
.word 0xf85f8e99
.word 0xf8008681
.word 0xf8008680
.word 0xf8008699
.word 0xf85b83b1
.word 0xf9002234
.word 0xaa0003e3
.word 0xaa0103e2
.word 0xaa1903e1
.word 0xaa1303e0
.word 0xa9bf7ffe
bl _JS_SetPrivateField_GC
.word 0xa8c17ffe
.word 0xd1002294
.word 0xd1002294
.word 0xf8008680
.word 0xf85f8e99
.word 0xf85f8e81
.word 0x7100033f
b.GE Label_327
.word 0x910006d6
.word 0xf85b83b1
.word 0xf9002234
b __exception_handler_entry
Label_327:
.word 0x38401ec8
.word 0x91000108
.word 0xf8685aa9
.word 0xd61f0120
.global _dispatch_table_1_69
_dispatch_table_1_69:
.word 0xaa0003e1
.word 0xf85f8e80
.global _dispatch_table_2_69
_dispatch_table_2_69:
.word 0xf85f8e99
.word 0xf8008681
.word 0xf8008680
.word 0xf8008699
.word 0xf85b83b1
.word 0xf9002234
.word 0xaa0003e3
.word 0xaa0103e2
.word 0xaa1903e1
.word 0xaa1303e0
.word 0xa9bf7ffe
bl _JS_SetPrivateField_GC
.word 0xa8c17ffe
.word 0xd1002294
.word 0xd1002294
.word 0xf8008680
.word 0xf85f8e99
.word 0xf85f8e81
.word 0x7100033f
b.GE Label_328
.word 0x910006d6
.word 0xf85b83b1
.word 0xf9002234
b __exception_handler_entry
Label_328:
.word 0x38401ec8
.word 0x91000108
.word 0xf8685aa9
.word 0xd61f0120
.global _dispatch_table_0_70
_dispatch_table_0_70:
.word 0xa9ff0680
.word 0xf85f8288
.word 0xaa0003f9
.word 0xf8008680
.word 0xf8008681
.word 0xf85b83b1
.word 0xf9002234
.word 0xaa0103e3
.word 0xaa0003e2
.word 0xaa0803e1
.word 0xaa1303e0
.word 0xa9bf7ffe
bl _JS_DefinePrivateField_GC
.word 0xa8c17ffe
.word 0xd1002294
.word 0xd1002294
.word 0x7100001f
b.GE Label_329
.word 0x910006d6
.word 0xf85b83b1
.word 0xf9002234
b __exception_handler_entry
Label_329:
.word 0x38401ec8
.word 0x91000108
.word 0xf8685aa9
.word 0xd61f0120
.global _dispatch_table_1_70
_dispatch_table_1_70:
.word 0xaa0003e1
.word 0xf85f8e80
.global _dispatch_table_2_70
_dispatch_table_2_70:
.word 0xf85f8288
.word 0xaa0003f9
.word 0xf8008680
.word 0xf8008681
.word 0xf85b83b1
.word 0xf9002234
.word 0xaa0103e3
.word 0xaa0003e2
.word 0xaa0803e1
.word 0xaa1303e0
.word 0xa9bf7ffe
bl _JS_DefinePrivateField_GC
.word 0xa8c17ffe
.word 0xd1002294
.word 0xd1002294
.word 0x7100001f
b.GE Label_330
.word 0x910006d6
.word 0xf85b83b1
.word 0xf9002234
b __exception_handler_entry
Label_330:
.word 0x38401ec8
.word 0x91000108
.word 0xf8685aa9
.word 0xd61f0120
.global _dispatch_table_0_71
_dispatch_table_0_71:
.word 0xa9ff0680
.word 0xf8008680
.word 0xf8008681
.word 0xf85b83b1
.word 0xf9002234
.word 0xaa0103e2
.word 0xaa0003e1
.word 0xaa1303e0
.word 0xa9bf7ffe
bl _JS_GetPropertyValue_GC
.word 0xa8c17ffe
.word 0xd1002294
.word 0xd1002294
.word 0xf102081f
b.NE Label_331
.word 0x910006d6
.word 0xf85b83b1
.word 0xf9002234
b __exception_handler_entry
Label_331:
.word 0x38401ec8
.word 0x9103c908
.word 0xf8685aa9
.word 0xd61f0120
.global _dispatch_table_1_71
_dispatch_table_1_71:
.word 0xaa0003e1
.word 0xf85f8e80
.global _dispatch_table_2_71
_dispatch_table_2_71:
.word 0xf8008680
.word 0xf8008681
.word 0xf85b83b1
.word 0xf9002234
.word 0xaa0103e2
.word 0xaa0003e1
.word 0xaa1303e0
.word 0xa9bf7ffe
bl _JS_GetPropertyValue_GC
.word 0xa8c17ffe
.word 0xd1002294
.word 0xd1002294
.word 0xf102081f
b.NE Label_332
.word 0x910006d6
.word 0xf85b83b1
.word 0xf9002234
b __exception_handler_entry
Label_332:
.word 0x38401ec8
.word 0x9103c908
.word 0xf8685aa9
.word 0xd61f0120
.global _dispatch_table_0_72
_dispatch_table_0_72:
.word 0xa9ff0680
.word 0xaa0003f9
.word 0xf8008680
.word 0xf8008681
.word 0xf85b83b1
.word 0xf9002234
.word 0xaa0103e2
.word 0xaa0003e1
.word 0xaa1303e0
.word 0xa9bf7ffe
bl _JS_GetPropertyValue_GC
.word 0xa8c17ffe
.word 0xd1002294
.word 0xd1002294
.word 0xaa0003e1
.word 0xaa1903e0
.word 0xf102083f
b.NE Label_334
.word 0xf8008680
.word 0xf8008681
.word 0x910006d6
.word 0xf85b83b1
.word 0xf9002234
b __exception_handler_entry
Label_334:
.word 0x38401ec8
.word 0x91079108
.word 0xf8685aa9
.word 0xd61f0120
.global _dispatch_table_1_72
_dispatch_table_1_72:
.word 0xaa0003e1
.word 0xf85f8e80
.global _dispatch_table_2_72
_dispatch_table_2_72:
.word 0xaa0003f9
.word 0xf8008680
.word 0xf8008681
.word 0xf85b83b1
.word 0xf9002234
.word 0xaa0103e2
.word 0xaa0003e1
.word 0xaa1303e0
.word 0xa9bf7ffe
bl _JS_GetPropertyValue_GC
.word 0xa8c17ffe
.word 0xd1002294
.word 0xd1002294
.word 0xaa0003e1
.word 0xaa1903e0
.word 0xf102083f
b.NE Label_336
.word 0xf8008680
.word 0xf8008681
.word 0x910006d6
.word 0xf85b83b1
.word 0xf9002234
b __exception_handler_entry
Label_336:
.word 0x38401ec8
.word 0x91079108
.word 0xf8685aa9
.word 0xd61f0120
.global _dispatch_table_0_73
_dispatch_table_0_73:
.word 0xa9ff0680
.word 0xf85f8e99
.word 0xd2800049
.word 0xf2ffffe9
.word 0xea090329
cbnz x9, Label_338
.word 0x79400f29
.word 0xf100553f
b.LT Label_338
.word 0xf100753f
b.GT Label_338
.word 0xd2800004
b Label_337
Label_338:
.word 0xb27103e4
Label_337:
.word 0xf8008680
.word 0xf8008681
.word 0xf8008699
.word 0xf85b83b1
.word 0xf9002234
.word 0xaa0103e3
.word 0xaa0003e2
.word 0xaa1903e1
.word 0xaa1303e0
.word 0xa9bf7ffe
bl _JS_SetPropertyValue_GC
.word 0xa8c17ffe
.word 0xd1002294
.word 0xd1002294
.word 0xd1002294
.word 0x7100001f
b.GE Label_339
.word 0x910006d6
.word 0xf85b83b1
.word 0xf9002234
b __exception_handler_entry
Label_339:
.word 0x38401ec8
.word 0x91000108
.word 0xf8685aa9
.word 0xd61f0120
.global _dispatch_table_1_73
_dispatch_table_1_73:
.word 0xaa0003e1
.word 0xf85f8e80
.global _dispatch_table_2_73
_dispatch_table_2_73:
.word 0xf85f8e99
.word 0xd2800049
.word 0xf2ffffe9
.word 0xea090329
cbnz x9, Label_341
.word 0x79400f29
.word 0xf100553f
b.LT Label_341
.word 0xf100753f
b.GT Label_341
.word 0xd2800004
b Label_340
Label_341:
.word 0xb27103e4
Label_340:
.word 0xf8008680
.word 0xf8008681
.word 0xf8008699
.word 0xf85b83b1
.word 0xf9002234
.word 0xaa0103e3
.word 0xaa0003e2
.word 0xaa1903e1
.word 0xaa1303e0
.word 0xa9bf7ffe
bl _JS_SetPropertyValue_GC
.word 0xa8c17ffe
.word 0xd1002294
.word 0xd1002294
.word 0xd1002294
.word 0x7100001f
b.GE Label_342
.word 0x910006d6
.word 0xf85b83b1
.word 0xf9002234
b __exception_handler_entry
Label_342:
.word 0x38401ec8
.word 0x91000108
.word 0xf8685aa9
.word 0xd61f0120
.global _dispatch_table_0_74
_dispatch_table_0_74:
.word 0xa9ff0680
.word 0xf8008680
.word 0xf8008681
.word 0xf85b83b1
.word 0xf9002234
.word 0xaa1303e0
.word 0xa9bf7ffe
bl _LEPUS_ValueToAtom
.word 0xa8c17ffe
.word 0xd2800008
.word 0xeb08001f
b.NE Label_343
.word 0xf85b83b1
.word 0xf9002234
.word 0x910006d6
b __exception_handler_entry
Label_343:
.word 0xaa0003f9
.word 0xf85f0280
.word 0xf85e8288
.word 0xd2800009
.word 0xd2800005
.word 0xf85b83b1
.word 0xf9002234
.word 0xaa0903e4
.word 0xaa0803e3
.word 0xaa1903e2
.word 0xaa0003e1
.word 0xaa1303e0
.word 0xa9bf7ffe
bl _JS_GetPropertyInternalImpl_GC
.word 0xa8c17ffe
.word 0xf102081f
b.NE Label_344
.word 0x910006d6
.word 0xf85b83b1
.word 0xf9002234
b __exception_handler_entry
Label_344:
.word 0xf8008680
.word 0xf85f8e99
.word 0xd1002294
.word 0xd1002294
.word 0xd1002294
.word 0xaa1903e0
.word 0x38401ec8
.word 0x9103c908
.word 0xf8685aa9
.word 0xd61f0120
.global _dispatch_table_1_74
_dispatch_table_1_74:
.word 0xaa0003e1
.word 0xf85f8e80
.global _dispatch_table_2_74
_dispatch_table_2_74:
.word 0xf8008680
.word 0xf8008681
.word 0xf85b83b1
.word 0xf9002234
.word 0xaa1303e0
.word 0xa9bf7ffe
bl _LEPUS_ValueToAtom
.word 0xa8c17ffe
.word 0xd2800008
.word 0xeb08001f
b.NE Label_345
.word 0xf85b83b1
.word 0xf9002234
.word 0x910006d6
b __exception_handler_entry
Label_345:
.word 0xaa0003f9
.word 0xf85f0280
.word 0xf85e8288
.word 0xd2800009
.word 0xd2800005
.word 0xf85b83b1
.word 0xf9002234
.word 0xaa0903e4
.word 0xaa0803e3
.word 0xaa1903e2
.word 0xaa0003e1
.word 0xaa1303e0
.word 0xa9bf7ffe
bl _JS_GetPropertyInternalImpl_GC
.word 0xa8c17ffe
.word 0xf102081f
b.NE Label_346
.word 0x910006d6
.word 0xf85b83b1
.word 0xf9002234
b __exception_handler_entry
Label_346:
.word 0xf8008680
.word 0xf85f8e99
.word 0xd1002294
.word 0xd1002294
.word 0xd1002294
.word 0xaa1903e0
.word 0x38401ec8
.word 0x9103c908
.word 0xf8685aa9
.word 0xd61f0120
.global _dispatch_table_1_75
_dispatch_table_1_75:
.word 0xf8008680
.word 0xf85b83b1
.word 0xf9002234
.word 0xf85e8288
.word 0xd2800049
.word 0xf2ffffc9
.word 0xea09011f
b.EQ Label_348
.word 0xf85b83b1
.word 0xf9002234
.word 0xaa1303e0
.word 0xa9bf7ffe
bl _JS_ThrowTypeErrorNotAnObject
.word 0xa8c17ffe
.word 0x910006d6
.word 0xf85b83b1
.word 0xf9002234
b __exception_handler_entry
Label_348:
.word 0xf85f0288
.word 0xf85b83b1
.word 0xf9002234
.word 0xaa0803e1
.word 0xaa1303e0
.word 0xa9bf7ffe
bl _LEPUS_ValueToAtom
.word 0xa8c17ffe
.word 0xf100001f
b.NE Label_350
.word 0x910006d6
.word 0xf85b83b1
.word 0xf9002234
b __exception_handler_entry
Label_350:
.word 0xf85e8281
.word 0xf85f8283
.word 0xf85e0284
.word 0xb27103e5
.word 0xaa0003f9
.word 0xf85b83b1
.word 0xf9002234
.word 0xaa0003e2
.word 0xaa1303e0
.word 0xa9bf7ffe
bl _JS_SetPropertyGeneric_GC
.word 0xa8c17ffe
.word 0xd1008294
.word 0x7100001f
b.GE Label_351
.word 0x910006d6
.word 0xf85b83b1
.word 0xf9002234
b __exception_handler_entry
Label_351:
.word 0x38401ec8
.word 0x91000108
.word 0xf8685aa9
.word 0xd61f0120
.global _dispatch_table_2_75
_dispatch_table_2_75:
.word 0xa8810680
.word 0xf85b83b1
.word 0xf9002234
.global _dispatch_table_0_75
_dispatch_table_0_75:
.word 0xf85e8288
.word 0xd2800049
.word 0xf2ffffc9
.word 0xea09011f
b.EQ Label_353
.word 0xf85b83b1
.word 0xf9002234
.word 0xaa1303e0
.word 0xa9bf7ffe
bl _JS_ThrowTypeErrorNotAnObject
.word 0xa8c17ffe
.word 0x910006d6
.word 0xf85b83b1
.word 0xf9002234
b __exception_handler_entry
Label_353:
.word 0xf85f0288
.word 0xf85b83b1
.word 0xf9002234
.word 0xaa0803e1
.word 0xaa1303e0
.word 0xa9bf7ffe
bl _LEPUS_ValueToAtom
.word 0xa8c17ffe
.word 0xf100001f
b.NE Label_355
.word 0x910006d6
.word 0xf85b83b1
.word 0xf9002234
b __exception_handler_entry
Label_355:
.word 0xf85e8281
.word 0xf85f8283
.word 0xf85e0284
.word 0xb27103e5
.word 0xaa0003f9
.word 0xf85b83b1
.word 0xf9002234
.word 0xaa0003e2
.word 0xaa1303e0
.word 0xa9bf7ffe
bl _JS_SetPropertyGeneric_GC
.word 0xa8c17ffe
.word 0xd1008294
.word 0x7100001f
b.GE Label_356
.word 0x910006d6
.word 0xf85b83b1
.word 0xf9002234
b __exception_handler_entry
Label_356:
.word 0x38401ec8
.word 0x91000108
.word 0xf8685aa9
.word 0xd61f0120
.global _dispatch_table_0_76
_dispatch_table_0_76:
.word 0xb84012c2
.word 0xd28800e4
.word 0xf85f8e80
.word 0xf85f8281
.word 0xf8008680
.word 0xf85b83b1
.word 0xf9002234
.word 0xaa0003e3
.word 0xaa1303e0
.word 0xa9bf7ffe
bl _LEPUS_DefinePropertyValue
.word 0xa8c17ffe
.word 0xd1002294
.word 0x7100001f
b.GE Label_357
.word 0x910016d6
.word 0xf85b83b1
.word 0xf9002234
b __exception_handler_entry
Label_357:
.word 0x38405ec8
.word 0x91000108
.word 0xf8685aa9
.word 0xd61f0120
.global _dispatch_table_1_76
_dispatch_table_1_76:
.word 0xb84012c2
.word 0xd28800e4
.word 0xf85f8281
.word 0xf8008680
.word 0xf85b83b1
.word 0xf9002234
.word 0xaa0003e3
.word 0xaa1303e0
.word 0xa9bf7ffe
bl _LEPUS_DefinePropertyValue
.word 0xa8c17ffe
.word 0xd1002294
.word 0x7100001f
b.GE Label_358
.word 0x910016d6
.word 0xf85b83b1
.word 0xf9002234
b __exception_handler_entry
Label_358:
.word 0x38405ec8
.word 0x91000108
.word 0xf8685aa9
.word 0xd61f0120
.global _dispatch_table_2_76
_dispatch_table_2_76:
.word 0xb84012c2
.word 0xd28800e4
.word 0xaa0003f9
.word 0xf8008680
.word 0xf8008681
.word 0xf85b83b1
.word 0xf9002234
.word 0xaa0103e3
.word 0xaa0003e1
.word 0xaa1303e0
.word 0xa9bf7ffe
bl _LEPUS_DefinePropertyValue
.word 0xa8c17ffe
.word 0xd1002294
.word 0xd1002294
.word 0x7100001f
b.GE Label_360
.word 0xf8008699
.word 0x910016d6
.word 0xf85b83b1
.word 0xf9002234
b __exception_handler_entry
Label_360:
.word 0xaa1903e0
.word 0x38405ec8
.word 0x9103c908
.word 0xf8685aa9
.word 0xd61f0120
.global _dispatch_table_2_77
_dispatch_table_2_77:
.word 0xf8008680
.word 0xaa0103e0
.word 0xf85b83b1
.word 0xf9002234
.word 0xb84012c8
.word 0xb24003e9
.word 0xaa0003f9
.word 0xf8008680
.word 0xf85b83b1
.word 0xf9002234
.word 0xaa0903e3
.word 0xaa0803e2
.word 0xaa0003e1
.word 0xaa1303e0
.word 0xa9bf7ffe
bl _JS_DefineObjectName
.word 0xa8c17ffe
.word 0xd1002294
.word 0x7100001f
b.GE Label_362
.word 0xf8008699
.word 0x910016d6
.word 0xf85b83b1
.word 0xf9002234
b __exception_handler_entry
Label_362:
.word 0xaa1903e0
.word 0x38405ec8
.word 0x9103c908
.word 0xf8685aa9
.word 0xd61f0120
.global _dispatch_table_0_77
_dispatch_table_0_77:
.word 0xf85f8e80
.global _dispatch_table_1_77
_dispatch_table_1_77:
.word 0xb84012c8
.word 0xb24003e9
.word 0xaa0003f9
.word 0xf8008680
.word 0xf85b83b1
.word 0xf9002234
.word 0xaa0903e3
.word 0xaa0803e2
.word 0xaa0003e1
.word 0xaa1303e0
.word 0xa9bf7ffe
bl _JS_DefineObjectName
.word 0xa8c17ffe
.word 0xd1002294
.word 0x7100001f
b.GE Label_364
.word 0xf8008699
.word 0x910016d6
.word 0xf85b83b1
.word 0xf9002234
b __exception_handler_entry
Label_364:
.word 0xaa1903e0
.word 0x38405ec8
.word 0x9103c908
.word 0xf8685aa9
.word 0xd61f0120
.global _dispatch_table_0_78
_dispatch_table_0_78:
.word 0xa9ff0680
.word 0xb24003e8
.word 0xaa0003f9
.word 0xf8008681
.word 0xf8008680
.word 0xf85b83b1
.word 0xf9002234
.word 0xaa0803e3
.word 0xaa0003e2
.word 0xaa1303e0
.word 0xa9bf7ffe
bl _JS_DefineObjectNameComputed_GC
.word 0xa8c17ffe
.word 0xd1002294
.word 0x7100001f
b.GE Label_366
.word 0xf8008699
.word 0x910006d6
.word 0xf85b83b1
.word 0xf9002234
b __exception_handler_entry
Label_366:
.word 0xf85f8e81
.word 0xaa1903e0
.word 0x38401ec8
.word 0x91079108
.word 0xf8685aa9
.word 0xd61f0120
.global _dispatch_table_1_78
_dispatch_table_1_78:
.word 0xaa0003e1
.word 0xf85f8e80
.global _dispatch_table_2_78
_dispatch_table_2_78:
.word 0xb24003e8
.word 0xaa0003f9
.word 0xf8008681
.word 0xf8008680
.word 0xf85b83b1
.word 0xf9002234
.word 0xaa0803e3
.word 0xaa0003e2
.word 0xaa1303e0
.word 0xa9bf7ffe
bl _JS_DefineObjectNameComputed_GC
.word 0xa8c17ffe
.word 0xd1002294
.word 0x7100001f
b.GE Label_368
.word 0xf8008699
.word 0x910006d6
.word 0xf85b83b1
.word 0xf9002234
b __exception_handler_entry
Label_368:
.word 0xf85f8e81
.word 0xaa1903e0
.word 0x38401ec8
.word 0x91079108
.word 0xf8685aa9
.word 0xd61f0120
.global _dispatch_table_0_79
_dispatch_table_0_79:
.word 0xa9ff0680
.word 0xaa0003f9
.word 0xf100083f
b.NE Label_369
b Label_370
Label_369:
.word 0xd2800048
.word 0xf2ffffe8
.word 0xea01011f
b.NE Label_371
Label_370:
.word 0xb24003e3
.word 0xf8008681
.word 0xf8008680
.word 0xf85b83b1
.word 0xf9002234
.word 0xaa0103e2
.word 0xaa0003e1
.word 0xaa1303e0
.word 0xa9bf7ffe
bl _JS_SetPrototypeInternal_GC
.word 0xa8c17ffe
.word 0xd1002294
.word 0x7100001f
b.GE Label_373
.word 0xf8008699
.word 0x910006d6
.word 0xf85b83b1
.word 0xf9002234
b __exception_handler_entry
Label_373:
.word 0xf85f8e81
Label_371:
.word 0xaa1903e0
.word 0x38401ec8
.word 0x9103c908
.word 0xf8685aa9
.word 0xd61f0120
.global _dispatch_table_1_79
_dispatch_table_1_79:
.word 0xaa0003e1
.word 0xf85f8e80
.global _dispatch_table_2_79
_dispatch_table_2_79:
.word 0xaa0003f9
.word 0xf100083f
b.NE Label_374
b Label_375
Label_374:
.word 0xd2800048
.word 0xf2ffffe8
.word 0xea01011f
b.NE Label_376
Label_375:
.word 0xb24003e3
.word 0xf8008681
.word 0xf8008680
.word 0xf85b83b1
.word 0xf9002234
.word 0xaa0103e2
.word 0xaa0003e1
.word 0xaa1303e0
.word 0xa9bf7ffe
bl _JS_SetPrototypeInternal_GC
.word 0xa8c17ffe
.word 0xd1002294
.word 0x7100001f
b.GE Label_378
.word 0xf8008699
.word 0x910006d6
.word 0xf85b83b1
.word 0xf9002234
b __exception_handler_entry
Label_378:
.word 0xf85f8e81
Label_376:
.word 0xaa1903e0
.word 0x38401ec8
.word 0x9103c908
.word 0xf8685aa9
.word 0xd61f0120
.global _dispatch_table_0_80
_dispatch_table_0_80:
.word 0xa9ff0680
.word 0xf8008680
.word 0xaa0103f9
.word 0xaa0003e2
.word 0xaa1303e0
.word 0xa9bf7ffe
bl _js_method_set_home_object_gc
.word 0xa8c17ffe
.word 0xaa1903e1
.word 0xf85f8e80
.word 0x38401ec8
.word 0x91079108
.word 0xf8685aa9
.word 0xd61f0120
.global _dispatch_table_1_80
_dispatch_table_1_80:
.word 0xaa0003e1
.word 0xf85f8e80
.global _dispatch_table_2_80
_dispatch_table_2_80:
.word 0xf8008680
.word 0xaa0103f9
.word 0xaa0003e2
.word 0xaa1303e0
.word 0xa9bf7ffe
bl _js_method_set_home_object_gc
.word 0xa8c17ffe
.word 0xaa1903e1
.word 0xf85f8e80
.word 0x38401ec8
.word 0x91079108
.word 0xf8685aa9
.word 0xd61f0120
.global _dispatch_table_0_81
_dispatch_table_0_81:
.word 0xa9ff0680
.word 0xf85f8e99
.word 0xd28800e8
.word 0xf8008680
.word 0xf8008681
.word 0xf8008699
.word 0xf85b83b1
.word 0xf9002234
.word 0xaa0803e4
.word 0xaa0103e3
.word 0xaa0003e2
.word 0xaa1903e1
.word 0xaa1303e0
.word 0xa9bf7ffe
bl _JS_DefinePropertyValueValue_GC
.word 0xa8c17ffe
.word 0xd1002294
.word 0xd1002294
.word 0x7100001f
b.GE Label_380
.word 0xf8008699
.word 0x910006d6
.word 0xf85b83b1
.word 0xf9002234
b __exception_handler_entry
Label_380:
.word 0xf85f8e81
.word 0xaa1903e0
.word 0x38401ec8
.word 0x91079108
.word 0xf8685aa9
.word 0xd61f0120
.global _dispatch_table_1_81
_dispatch_table_1_81:
.word 0xaa0003e1
.word 0xf85f8e80
.global _dispatch_table_2_81
_dispatch_table_2_81:
.word 0xf85f8e99
.word 0xd28800e8
.word 0xf8008680
.word 0xf8008681
.word 0xf8008699
.word 0xf85b83b1
.word 0xf9002234
.word 0xaa0803e4
.word 0xaa0103e3
.word 0xaa0003e2
.word 0xaa1903e1
.word 0xaa1303e0
.word 0xa9bf7ffe
bl _JS_DefinePropertyValueValue_GC
.word 0xa8c17ffe
.word 0xd1002294
.word 0xd1002294
.word 0x7100001f
b.GE Label_382
.word 0xf8008699
.word 0x910006d6
.word 0xf85b83b1
.word 0xf9002234
b __exception_handler_entry
Label_382:
.word 0xf85f8e81
.word 0xaa1903e0
.word 0x38401ec8
.word 0x91079108
.word 0xf8685aa9
.word 0xd61f0120
.global _dispatch_table_1_82
_dispatch_table_1_82:
.word 0xf8008680
.word 0xf85b83b1
.word 0xf9002234
.word 0xf85b83b1
.word 0xf9002234
.word 0xaa1403e1
.word 0xaa1303e0
.word 0xa9bf7ffe
bl _js_append_enumerate_gc
.word 0xa8c17ffe
.word 0x7100001f
b.GE Label_383
.word 0x910006d6
.word 0xf85b83b1
.word 0xf9002234
b __exception_handler_entry
Label_383:
.word 0xf85f8e80
.word 0x38401ec8
.word 0x91000108
.word 0xf8685aa9
.word 0xd61f0120
.global _dispatch_table_2_82
_dispatch_table_2_82:
.word 0xa8810680
.word 0xf85b83b1
.word 0xf9002234
.global _dispatch_table_0_82
_dispatch_table_0_82:
.word 0xf85b83b1
.word 0xf9002234
.word 0xaa1403e1
.word 0xaa1303e0
.word 0xa9bf7ffe
bl _js_append_enumerate_gc
.word 0xa8c17ffe
.word 0x7100001f
b.GE Label_384
.word 0x910006d6
.word 0xf85b83b1
.word 0xf9002234
b __exception_handler_entry
Label_384:
.word 0xf85f8e80
.word 0x38401ec8
.word 0x91000108
.word 0xf8685aa9
.word 0xd61f0120
.global _dispatch_table_1_83
_dispatch_table_1_83:
.word 0xf8008680
.word 0xf85b83b1
.word 0xf9002234
.word 0x394006c2
.word 0xf85b83b1
.word 0xf9002234
.word 0xaa1403e1
.word 0xaa1303e0
.word 0xa9bf7ffe
bl _prim_js_copy_data_properties_gc
.word 0xa8c17ffe
.word 0x7100001f
b.GE Label_385
.word 0x91000ad6
.word 0xf85b83b1
.word 0xf9002234
b __exception_handler_entry
Label_385:
.word 0x38402ec8
.word 0x91000108
.word 0xf8685aa9
.word 0xd61f0120
.global _dispatch_table_2_83
_dispatch_table_2_83:
.word 0xa8810680
.word 0xf85b83b1
.word 0xf9002234
.global _dispatch_table_0_83
_dispatch_table_0_83:
.word 0x394006c2
.word 0xf85b83b1
.word 0xf9002234
.word 0xaa1403e1
.word 0xaa1303e0
.word 0xa9bf7ffe
bl _prim_js_copy_data_properties_gc
.word 0xa8c17ffe
.word 0x7100001f
b.GE Label_386
.word 0x91000ad6
.word 0xf85b83b1
.word 0xf9002234
b __exception_handler_entry
Label_386:
.word 0x38402ec8
.word 0x91000108
.word 0xf8685aa9
.word 0xd61f0120
.global _dispatch_table_0_84
_dispatch_table_0_84:
.word 0xa9ff0680
.word 0xb84012c8
.word 0x394016c9
.word 0xd288a023
.word 0xf27e013f
b.EQ Label_387
.word 0xb27e0063
Label_387:
.word 0x92400529
.word 0xf100013f
b.NE Label_388
.word 0xd2844044
.word 0xaa040063
b Label_390
Label_388:
.word 0xf100053f
b.NE Label_389
.word 0xb2750063
b Label_390
Label_389:
.word 0xb2740063
Label_390:
.word 0xf8008680
.word 0xf8008681
.word 0xf85b83b1
.word 0xf9002234
.word 0xf8008683
.word 0xaa0003e4
.word 0xaa0803e2
.word 0xaa1303e0
.word 0xa9bf7ffe
bl _js_method_set_properties_gc
.word 0xa8c17ffe
.word 0xf85f8e83
.word 0x7100001f
b.LT Label_391
.word 0xf85f8281
.word 0xf85f0280
.word 0xb84012c8
.word 0xaa0303e6
.word 0xaa0103e5
.word 0xaa0103e4
.word 0xaa0103e3
.word 0xaa0803e2
.word 0xaa0003e1
.word 0xaa1303e0
.word 0xa9bf7ffe
bl _LEPUS_DefineProperty
.word 0xa8c17ffe
Label_391:
.word 0xaa0003f9
.word 0xf85f8e81
.word 0x7100033f
b.GE Label_392
.word 0x91001ad6
.word 0xf85b83b1
.word 0xf9002234
b __exception_handler_entry
Label_392:
.word 0x38406ec8
.word 0x91000108
.word 0xf8685aa9
.word 0xd61f0120
.global _dispatch_table_1_84
_dispatch_table_1_84:
.word 0xaa0003e1
.word 0xf85f8e80
.global _dispatch_table_2_84
_dispatch_table_2_84:
.word 0xb84012c8
.word 0x394016c9
.word 0xd288a023
.word 0xf27e013f
b.EQ Label_393
.word 0xb27e0063
Label_393:
.word 0x92400529
.word 0xf100013f
b.NE Label_394
.word 0xd2844044
.word 0xaa040063
b Label_396
Label_394:
.word 0xf100053f
b.NE Label_395
.word 0xb2750063
b Label_396
Label_395:
.word 0xb2740063
Label_396:
.word 0xf8008680
.word 0xf8008681
.word 0xf85b83b1
.word 0xf9002234
.word 0xf8008683
.word 0xaa0003e4
.word 0xaa0803e2
.word 0xaa1303e0
.word 0xa9bf7ffe
bl _js_method_set_properties_gc
.word 0xa8c17ffe
.word 0xf85f8e83
.word 0x7100001f
b.LT Label_397
.word 0xf85f8281
.word 0xf85f0280
.word 0xb84012c8
.word 0xaa0303e6
.word 0xaa0103e5
.word 0xaa0103e4
.word 0xaa0103e3
.word 0xaa0803e2
.word 0xaa0003e1
.word 0xaa1303e0
.word 0xa9bf7ffe
bl _LEPUS_DefineProperty
.word 0xa8c17ffe
Label_397:
.word 0xaa0003f9
.word 0xf85f8e81
.word 0x7100033f
b.GE Label_398
.word 0x91001ad6
.word 0xf85b83b1
.word 0xf9002234
b __exception_handler_entry
Label_398:
.word 0x38406ec8
.word 0x91000108
.word 0xf8685aa9
.word 0xd61f0120
.global _dispatch_table_0_85
_dispatch_table_0_85:
.word 0xa9ff0680
.word 0xf8008680
.word 0xf8008681
.word 0xf85b83b1
.word 0xf9002234
.word 0xaa0003e1
.word 0xaa1303e0
.word 0xa9bf7ffe
bl _LEPUS_ValueToAtom
.word 0xa8c17ffe
.word 0xf100001f
b.NE Label_399
.word 0x91000ad6
.word 0xf85b83b1
.word 0xf9002234
b __exception_handler_entry
Label_399:
.word 0xaa0003e8
.word 0x394006c9
.word 0xd288a023
.word 0xf27e013f
b.EQ Label_400
.word 0xb27e0063
Label_400:
.word 0x92400529
.word 0xf100013f
b.NE Label_401
.word 0xd2844044
.word 0xaa040063
b Label_403
Label_401:
.word 0xf100053f
b.NE Label_402
.word 0xb2750063
b Label_403
Label_402:
.word 0xb2740063
Label_403:
.word 0xaa0303f9
.word 0xf85f8281
.word 0xf85f0280
.word 0xf85e8289
.word 0xf85b83b1
.word 0xf9002234
.word 0xf8008688
.word 0xaa0903e4
.word 0xaa1903e3
.word 0xaa0803e2
.word 0xaa1303e0
.word 0xa9bf7ffe
bl _js_method_set_properties_gc
.word 0xa8c17ffe
.word 0x7100001f
b.LT Label_404
.word 0xf85f8288
.word 0xf85f0281
.word 0xf85e8280
.word 0xf85e0289
.word 0xaa1903e6
.word 0xaa0103e5
.word 0xaa0103e4
.word 0xaa0103e3
.word 0xaa0803e2
.word 0xaa0903e1
.word 0xaa1303e0
.word 0xa9bf7ffe
bl _LEPUS_DefineProperty
.word 0xa8c17ffe
Label_404:
.word 0xaa0003f9
.word 0xf85f8e88
.word 0xf85f8e81
.word 0xf85f8e80
.word 0x7100033f
b.GE Label_405
.word 0x91000ad6
.word 0xf85b83b1
.word 0xf9002234
b __exception_handler_entry
Label_405:
.word 0x38402ec8
.word 0x91000108
.word 0xf8685aa9
.word 0xd61f0120
.global _dispatch_table_1_85
_dispatch_table_1_85:
.word 0xaa0003e1
.word 0xf85f8e80
.global _dispatch_table_2_85
_dispatch_table_2_85:
.word 0xf8008680
.word 0xf8008681
.word 0xf85b83b1
.word 0xf9002234
.word 0xaa0003e1
.word 0xaa1303e0
.word 0xa9bf7ffe
bl _LEPUS_ValueToAtom
.word 0xa8c17ffe
.word 0xf100001f
b.NE Label_406
.word 0x91000ad6
.word 0xf85b83b1
.word 0xf9002234
b __exception_handler_entry
Label_406:
.word 0xaa0003e8
.word 0x394006c9
.word 0xd288a023
.word 0xf27e013f
b.EQ Label_407
.word 0xb27e0063
Label_407:
.word 0x92400529
.word 0xf100013f
b.NE Label_408
.word 0xd2844044
.word 0xaa040063
b Label_410
Label_408:
.word 0xf100053f
b.NE Label_409
.word 0xb2750063
b Label_410
Label_409:
.word 0xb2740063
Label_410:
.word 0xaa0303f9
.word 0xf85f8281
.word 0xf85f0280
.word 0xf85e8289
.word 0xf85b83b1
.word 0xf9002234
.word 0xf8008688
.word 0xaa0903e4
.word 0xaa1903e3
.word 0xaa0803e2
.word 0xaa1303e0
.word 0xa9bf7ffe
bl _js_method_set_properties_gc
.word 0xa8c17ffe
.word 0x7100001f
b.LT Label_411
.word 0xf85f8288
.word 0xf85f0281
.word 0xf85e8280
.word 0xf85e0289
.word 0xaa1903e6
.word 0xaa0103e5
.word 0xaa0103e4
.word 0xaa0103e3
.word 0xaa0803e2
.word 0xaa0903e1
.word 0xaa1303e0
.word 0xa9bf7ffe
bl _LEPUS_DefineProperty
.word 0xa8c17ffe
Label_411:
.word 0xaa0003f9
.word 0xf85f8e88
.word 0xf85f8e81
.word 0xf85f8e80
.word 0x7100033f
b.GE Label_412
.word 0x91000ad6
.word 0xf85b83b1
.word 0xf9002234
b __exception_handler_entry
Label_412:
.word 0x38402ec8
.word 0x91000108
.word 0xf8685aa9
.word 0xd61f0120
.global _dispatch_table_1_86
_dispatch_table_1_86:
.word 0xf8008680
.word 0xf85b83b1
.word 0xf9002234
.word 0xb84012c8
.word 0x394016c9
.word 0xf85b83b1
.word 0xd2800006
.word 0xf9002234
.word 0xaa1103e5
.word 0xaa1c03e4
.word 0xaa0903e3
.word 0xaa0803e2
.word 0xaa1403e1
.word 0xaa1303e0
.word 0xa9bf7ffe
bl _js_op_define_class
.word 0xa8c17ffe
.word 0x7100001f
b.GE Label_413
.word 0x91001ad6
.word 0xf85b83b1
.word 0xf9002234
b __exception_handler_entry
Label_413:
.word 0x38406ec8
.word 0x91000108
.word 0xf8685aa9
.word 0xd61f0120
.global _dispatch_table_2_86
_dispatch_table_2_86:
.word 0xa8810680
.word 0xf85b83b1
.word 0xf9002234
.global _dispatch_table_0_86
_dispatch_table_0_86:
.word 0xb84012c8
.word 0x394016c9
.word 0xf85b83b1
.word 0xd2800006
.word 0xf9002234
.word 0xaa1103e5
.word 0xaa1c03e4
.word 0xaa0903e3
.word 0xaa0803e2
.word 0xaa1403e1
.word 0xaa1303e0
.word 0xa9bf7ffe
bl _js_op_define_class
.word 0xa8c17ffe
.word 0x7100001f
b.GE Label_414
.word 0x91001ad6
.word 0xf85b83b1
.word 0xf9002234
b __exception_handler_entry
Label_414:
.word 0x38406ec8
.word 0x91000108
.word 0xf8685aa9
.word 0xd61f0120
.global _dispatch_table_0_87
_dispatch_table_0_87:
.word 0x784012c8
.word 0x8b080f08
.word 0xf9400100
.word 0x38403ec8
.word 0x9103c908
.word 0xf8685aa9
.word 0xd61f0120
.global _dispatch_table_1_87
_dispatch_table_1_87:
.word 0x784012c8
.word 0x8b080f08
.word 0xf9400101
.word 0x38403ec8
.word 0x91079108
.word 0xf8685aa9
.word 0xd61f0120
.global _dispatch_table_2_87
_dispatch_table_2_87:
.word 0x784012c8
.word 0x8b080f08
.word 0xf8008680
.word 0xaa0103e0
.word 0xf9400101
.word 0x38403ec8
.word 0x91079108
.word 0xf8685aa9
.word 0xd61f0120
.global _dispatch_table_0_88
_dispatch_table_0_88:
.word 0x784012c8
.word 0x8b080f08
.word 0xf85f8e80
.word 0xf9000100
.word 0x38403ec8
.word 0x91000108
.word 0xf8685aa9
.word 0xd61f0120
.global _dispatch_table_1_88
_dispatch_table_1_88:
.word 0x784012c8
.word 0x8b080f08
.word 0xf9000100
.word 0x38403ec8
.word 0x91000108
.word 0xf8685aa9
.word 0xd61f0120
.global _dispatch_table_2_88
_dispatch_table_2_88:
.word 0x784012c8
.word 0x8b080f08
.word 0xf9000101
.word 0xaa0003f9
.word 0xaa1903e0
.word 0x38403ec8
.word 0x9103c908
.word 0xf8685aa9
.word 0xd61f0120
.global _dispatch_table_0_89
_dispatch_table_0_89:
.word 0x784012c8
.word 0x8b080f08
.word 0xf85f8e80
.word 0xf9000100
.word 0x38403ec8
.word 0x9103c908
.word 0xf8685aa9
.word 0xd61f0120
.global _dispatch_table_1_89
_dispatch_table_1_89:
.word 0x784012c8
.word 0x8b080f08
.word 0xf9000100
.word 0x38403ec8
.word 0x9103c908
.word 0xf8685aa9
.word 0xd61f0120
.global _dispatch_table_2_89
_dispatch_table_2_89:
.word 0x784012c8
.word 0x8b080f08
.word 0xf9000101
.word 0x38403ec8
.word 0x91079108
.word 0xf8685aa9
.word 0xd61f0120
.global _dispatch_table_0_90
_dispatch_table_0_90:
.word 0x784012c8
.word 0x8b080ee8
.word 0xf9400100
.word 0x38403ec8
.word 0x9103c908
.word 0xf8685aa9
.word 0xd61f0120
.global _dispatch_table_1_90
_dispatch_table_1_90:
.word 0x784012c8
.word 0x8b080ee8
.word 0xf9400101
.word 0x38403ec8
.word 0x91079108
.word 0xf8685aa9
.word 0xd61f0120
.global _dispatch_table_2_90
_dispatch_table_2_90:
.word 0x784012c8
.word 0x8b080ee8
.word 0xf8008680
.word 0xaa0103e0
.word 0xf9400101
.word 0x38403ec8
.word 0x91079108
.word 0xf8685aa9
.word 0xd61f0120
.global _dispatch_table_0_91
_dispatch_table_0_91:
.word 0x784012c8
.word 0x8b080ee8
.word 0xf85f8e80
.word 0xf9000100
.word 0x38403ec8
.word 0x91000108
.word 0xf8685aa9
.word 0xd61f0120
.global _dispatch_table_1_91
_dispatch_table_1_91:
.word 0x784012c8
.word 0x8b080ee8
.word 0xf9000100
.word 0x38403ec8
.word 0x91000108
.word 0xf8685aa9
.word 0xd61f0120
.global _dispatch_table_2_91
_dispatch_table_2_91:
.word 0x784012c8
.word 0x8b080ee8
.word 0xf9000101
.word 0x38403ec8
.word 0x9103c908
.word 0xf8685aa9
.word 0xd61f0120
.global _dispatch_table_0_92
_dispatch_table_0_92:
.word 0x784012c8
.word 0x8b080ee8
.word 0xf85f8e80
.word 0xf9000100
.word 0x38403ec8
.word 0x9103c908
.word 0xf8685aa9
.word 0xd61f0120
.global _dispatch_table_1_92
_dispatch_table_1_92:
.word 0x784012c8
.word 0x8b080ee8
.word 0xf9000100
.word 0x38403ec8
.word 0x9103c908
.word 0xf8685aa9
.word 0xd61f0120
.global _dispatch_table_2_92
_dispatch_table_2_92:
.word 0x784012c8
.word 0x8b080ee8
.word 0xf9000101
.word 0x38403ec8
.word 0x91079108
.word 0xf8685aa9
.word 0xd61f0120
.global _dispatch_table_0_93
_dispatch_table_0_93:
.word 0x784012c8
.word 0x8b080f88
.word 0xf9400108
.word 0xf9401108
.word 0xf9400100
.word 0x38403ec8
.word 0x9103c908
.word 0xf8685aa9
.word 0xd61f0120
.global _dispatch_table_1_93
_dispatch_table_1_93:
.word 0x784012c8
.word 0x8b080f88
.word 0xf9400108
.word 0xf9401108
.word 0xf9400101
.word 0x38403ec8
.word 0x91079108
.word 0xf8685aa9
.word 0xd61f0120
.global _dispatch_table_2_93
_dispatch_table_2_93:
.word 0x784012c8
.word 0x8b080f88
.word 0xf9400108
.word 0xf9401108
.word 0xf8008680
.word 0xaa0103e0
.word 0xf9400101
.word 0x38403ec8
.word 0x91079108
.word 0xf8685aa9
.word 0xd61f0120
.global _dispatch_table_0_94
_dispatch_table_0_94:
.word 0x784012c8
.word 0x8b080f88
.word 0xf9400108
.word 0xf9401108
.word 0xf85f8e80
.word 0xf9000100
.word 0xaa0003f9
.word 0xaa1303e1
.word 0xa9bf7ffe
bl _prim_WriteBarrierNoStore
.word 0xa8c17ffe
.word 0xaa1903e0
.word 0x38403ec8
.word 0x91000108
.word 0xf8685aa9
.word 0xd61f0120
.global _dispatch_table_1_94
_dispatch_table_1_94:
.word 0x784012c8
.word 0x8b080f88
.word 0xf9400108
.word 0xf9401108
.word 0xf9000100
.word 0xaa0003f9
.word 0xaa1303e1
.word 0xa9bf7ffe
bl _prim_WriteBarrierNoStore
.word 0xa8c17ffe
.word 0xaa1903e0
.word 0x38403ec8
.word 0x91000108
.word 0xf8685aa9
.word 0xd61f0120
.global _dispatch_table_2_94
_dispatch_table_2_94:
.word 0x784012c8
.word 0x8b080f88
.word 0xf9400108
.word 0xf9401108
.word 0xf9000101
.word 0xaa0103e8
.word 0xaa0003f9
.word 0xaa1303e1
.word 0xaa0803e0
.word 0xa9bf7ffe
bl _prim_WriteBarrierNoStore
.word 0xa8c17ffe
.word 0xaa1903e0
.word 0x38403ec8
.word 0x9103c908
.word 0xf8685aa9
.word 0xd61f0120
.global _dispatch_table_0_95
_dispatch_table_0_95:
.word 0x784012c8
.word 0x8b080f88
.word 0xf9400108
.word 0xf9401108
.word 0xf85f8e80
.word 0xf9000100
.word 0xaa0003f9
.word 0xaa1303e1
.word 0xa9bf7ffe
bl _prim_WriteBarrierNoStore
.word 0xa8c17ffe
.word 0xaa1903e0
.word 0x38403ec8
.word 0x9103c908
.word 0xf8685aa9
.word 0xd61f0120
.global _dispatch_table_1_95
_dispatch_table_1_95:
.word 0x784012c8
.word 0x8b080f88
.word 0xf9400108
.word 0xf9401108
.word 0xf9000100
.word 0xaa0003f9
.word 0xaa1303e1
.word 0xa9bf7ffe
bl _prim_WriteBarrierNoStore
.word 0xa8c17ffe
.word 0xaa1903e0
.word 0x38403ec8
.word 0x9103c908
.word 0xf8685aa9
.word 0xd61f0120
.global _dispatch_table_2_95
_dispatch_table_2_95:
.word 0x784012c8
.word 0x8b080f88
.word 0xf9400108
.word 0xf9401108
.word 0xf9000101
.word 0xaa0103e8
.word 0xf8008680
.word 0xf8008681
.word 0xaa1303e1
.word 0xaa0803e0
.word 0xa9bf7ffe
bl _prim_WriteBarrierNoStore
.word 0xa8c17ffe
.word 0xf85f8e81
.word 0xf85f8e80
.word 0x38403ec8
.word 0x91079108
.word 0xf8685aa9
.word 0xd61f0120
.global _dispatch_table_1_96
_dispatch_table_1_96:
.word 0xf8008680
.word 0xf85b83b1
.word 0xf9002234
.word 0x784012c8
.word 0x8b080f08
.word 0xf9400109
.word 0xd2800440
.word 0xf9000100
.word 0x38403ec8
.word 0x91000108
.word 0xf8685aa9
.word 0xd61f0120
.global _dispatch_table_2_96
_dispatch_table_2_96:
.word 0xa8810680
.word 0xf85b83b1
.word 0xf9002234
.global _dispatch_table_0_96
_dispatch_table_0_96:
.word 0x784012c8
.word 0x8b080f08
.word 0xf9400109
.word 0xd2800440
.word 0xf9000100
.word 0x38403ec8
.word 0x91000108
.word 0xf8685aa9
.word 0xd61f0120
.global _dispatch_table_0_97
_dispatch_table_0_97:
.word 0x784012c8
.word 0x8b080f08
.word 0xf9400109
.word 0xf100893f
b.NE Label_415
.word 0xd2800001
.word 0xf85b83b1
.word 0xf9002234
.word 0xaa1303e0
.word 0xa9bf7ffe
bl _JS_ThrowReferenceErrorUninitialized_GC
.word 0xa8c17ffe
.word 0x91000ed6
.word 0xf85b83b1
.word 0xf9002234
b __exception_handler_entry
Label_415:
.word 0xaa0903e0
.word 0x38403ec8
.word 0x9103c908
.word 0xf8685aa9
.word 0xd61f0120
.global _dispatch_table_1_97
_dispatch_table_1_97:
.word 0x784012c8
.word 0x8b080f08
.word 0xf9400109
.word 0xf100893f
b.NE Label_416
.word 0xf8008680
.word 0xd2800001
.word 0xf85b83b1
.word 0xf9002234
.word 0xaa1303e0
.word 0xa9bf7ffe
bl _JS_ThrowReferenceErrorUninitialized_GC
.word 0xa8c17ffe
.word 0x91000ed6
.word 0xf85b83b1
.word 0xf9002234
b __exception_handler_entry
Label_416:
.word 0xaa0903e1
.word 0x38403ec8
.word 0x91079108
.word 0xf8685aa9
.word 0xd61f0120
.global _dispatch_table_2_97
_dispatch_table_2_97:
.word 0x784012c8
.word 0x8b080f08
.word 0xf9400109
.word 0xf100893f
b.NE Label_417
.word 0xf8008680
.word 0xf8008681
.word 0xd2800001
.word 0xf85b83b1
.word 0xf9002234
.word 0xaa1303e0
.word 0xa9bf7ffe
bl _JS_ThrowReferenceErrorUninitialized_GC
.word 0xa8c17ffe
.word 0x91000ed6
.word 0xf85b83b1
.word 0xf9002234
b __exception_handler_entry
Label_417:
.word 0xf8008680
.word 0xaa0103e0
.word 0xaa0903e1
.word 0x38403ec8
.word 0x91079108
.word 0xf8685aa9
.word 0xd61f0120
.global _dispatch_table_2_98
_dispatch_table_2_98:
.word 0xf8008680
.word 0xaa0103e0
.word 0xf85b83b1
.word 0xf9002234
.word 0x784012c8
.word 0x8b080f08
.word 0xf9400109
.word 0xf100893f
b.NE Label_418
.word 0xf8008680
.word 0xd2800001
.word 0xaa1303e0
.word 0xa9bf7ffe
bl _JS_ThrowReferenceErrorUninitialized_GC
.word 0xa8c17ffe
.word 0x91000ed6
b __exception_handler_entry
Label_418:
.word 0xf9000100
.word 0x38403ec8
.word 0x91000108
.word 0xf8685aa9
.word 0xd61f0120
.global _dispatch_table_0_98
_dispatch_table_0_98:
.word 0xf85f8e80
.global _dispatch_table_1_98
_dispatch_table_1_98:
.word 0x784012c8
.word 0x8b080f08
.word 0xf9400109
.word 0xf100893f
b.NE Label_419
.word 0xf8008680
.word 0xd2800001
.word 0xaa1303e0
.word 0xa9bf7ffe
bl _JS_ThrowReferenceErrorUninitialized_GC
.word 0xa8c17ffe
.word 0x91000ed6
b __exception_handler_entry
Label_419:
.word 0xf9000100
.word 0x38403ec8
.word 0x91000108
.word 0xf8685aa9
.word 0xd61f0120
.global _dispatch_table_2_99
_dispatch_table_2_99:
.word 0xf8008680
.word 0xaa0103e0
.word 0xf85b83b1
.word 0xf9002234
.word 0x784012c8
.word 0x8b080f08
.word 0xf9400109
.word 0xd280044a
.word 0xeb0a013f
b.EQ Label_420
.word 0xf8008680
adr x1, Label_421
b Label_422
Label_421:
.asciz "'this' can be initialized only once"
.align 3
Label_422:
.word 0xf85b83b1
.word 0xf9002234
.word 0xaa1303e0
.word 0xa9bf7ffe
bl _LEPUS_ThrowReferenceError
.word 0xa8c17ffe
.word 0xf85b83b1
.word 0xf9002234
.word 0x91000ed6
b __exception_handler_entry
Label_420:
.word 0xf9000100
.word 0x38403ec8
.word 0x91000108
.word 0xf8685aa9
.word 0xd61f0120
.global _dispatch_table_0_99
_dispatch_table_0_99:
.word 0xf85f8e80
.global _dispatch_table_1_99
_dispatch_table_1_99:
.word 0x784012c8
.word 0x8b080f08
.word 0xf9400109
.word 0xd280044a
.word 0xeb0a013f
b.EQ Label_423
.word 0xf8008680
adr x1, Label_424
b Label_425
Label_424:
.asciz "'this' can be initialized only once"
.align 3
Label_425:
.word 0xf85b83b1
.word 0xf9002234
.word 0xaa1303e0
.word 0xa9bf7ffe
bl _LEPUS_ThrowReferenceError
.word 0xa8c17ffe
.word 0xf85b83b1
.word 0xf9002234
.word 0x91000ed6
b __exception_handler_entry
Label_423:
.word 0xf9000100
.word 0x38403ec8
.word 0x91000108
.word 0xf8685aa9
.word 0xd61f0120
.global _dispatch_table_1_100
_dispatch_table_1_100:
.word 0xf8008680
.word 0xf85b83b1
.word 0xf9002234
.word 0x784012c8
.word 0x8b080f88
.word 0xf9400108
.word 0xf9401108
.word 0xf9400100
.word 0xd2800448
.word 0xeb08001f
b.NE Label_426
.word 0xd2800001
.word 0xf85b83b1
.word 0xf9002234
.word 0xaa1303e0
.word 0xa9bf7ffe
bl _JS_ThrowReferenceErrorUninitialized_GC
.word 0xa8c17ffe
.word 0xf85b83b1
.word 0xf9002234
.word 0x91000ed6
b __exception_handler_entry
Label_426:
.word 0x38403ec8
.word 0x9103c908
.word 0xf8685aa9
.word 0xd61f0120
.global _dispatch_table_2_100
_dispatch_table_2_100:
.word 0xa8810680
.word 0xf85b83b1
.word 0xf9002234
.global _dispatch_table_0_100
_dispatch_table_0_100:
.word 0x784012c8
.word 0x8b080f88
.word 0xf9400108
.word 0xf9401108
.word 0xf9400100
.word 0xd2800448
.word 0xeb08001f
b.NE Label_427
.word 0xd2800001
.word 0xf85b83b1
.word 0xf9002234
.word 0xaa1303e0
.word 0xa9bf7ffe
bl _JS_ThrowReferenceErrorUninitialized_GC
.word 0xa8c17ffe
.word 0xf85b83b1
.word 0xf9002234
.word 0x91000ed6
b __exception_handler_entry
Label_427:
.word 0x38403ec8
.word 0x9103c908
.word 0xf8685aa9
.word 0xd61f0120
.global _dispatch_table_2_101
_dispatch_table_2_101:
.word 0xf8008680
.word 0xaa0103e0
.word 0xf85b83b1
.word 0xf9002234
.word 0x784012c8
.word 0x8b080f88
.word 0xf9400108
.word 0xf9401108
.word 0xf9400109
.word 0xd280044a
.word 0xeb0a013f
b.NE Label_428
.word 0xf8008680
.word 0xd2800001
.word 0xf85b83b1
.word 0xf9002234
.word 0xaa1303e0
.word 0xa9bf7ffe
bl _JS_ThrowReferenceErrorUninitialized_GC
.word 0xa8c17ffe
.word 0xf85b83b1
.word 0xf9002234
.word 0x91000ed6
b __exception_handler_entry
Label_428:
.word 0xf9000100
.word 0x38403ec8
.word 0x91000108
.word 0xf8685aa9
.word 0xd61f0120
.global _dispatch_table_0_101
_dispatch_table_0_101:
.word 0xf85f8e80
.global _dispatch_table_1_101
_dispatch_table_1_101:
.word 0x784012c8
.word 0x8b080f88
.word 0xf9400108
.word 0xf9401108
.word 0xf9400109
.word 0xd280044a
.word 0xeb0a013f
b.NE Label_429
.word 0xf8008680
.word 0xd2800001
.word 0xf85b83b1
.word 0xf9002234
.word 0xaa1303e0
.word 0xa9bf7ffe
bl _JS_ThrowReferenceErrorUninitialized_GC
.word 0xa8c17ffe
.word 0xf85b83b1
.word 0xf9002234
.word 0x91000ed6
b __exception_handler_entry
Label_429:
.word 0xf9000100
.word 0x38403ec8
.word 0x91000108
.word 0xf8685aa9
.word 0xd61f0120
.global _dispatch_table_2_102
_dispatch_table_2_102:
.word 0xf8008680
.word 0xaa0103e0
.word 0xf85b83b1
.word 0xf9002234
.word 0x784012c8
.word 0x8b080f88
.word 0xf9400108
.word 0xf9401108
.word 0xf9400109
.word 0xd280044a
.word 0xeb0a013f
b.EQ Label_430
.word 0xf8008680
.word 0xd2800001
.word 0xf85b83b1
.word 0xf9002234
.word 0xaa1303e0
.word 0xa9bf7ffe
bl _JS_ThrowReferenceErrorUninitialized_GC
.word 0xa8c17ffe
.word 0xf85b83b1
.word 0xf9002234
.word 0x91000ed6
b __exception_handler_entry
Label_430:
.word 0xf9000100
.word 0x38403ec8
.word 0x91000108
.word 0xf8685aa9
.word 0xd61f0120
.global _dispatch_table_0_102
_dispatch_table_0_102:
.word 0xf85f8e80
.global _dispatch_table_1_102
_dispatch_table_1_102:
.word 0x784012c8
.word 0x8b080f88
.word 0xf9400108
.word 0xf9401108
.word 0xf9400109
.word 0xd280044a
.word 0xeb0a013f
b.EQ Label_431
.word 0xf8008680
.word 0xd2800001
.word 0xf85b83b1
.word 0xf9002234
.word 0xaa1303e0
.word 0xa9bf7ffe
bl _JS_ThrowReferenceErrorUninitialized_GC
.word 0xa8c17ffe
.word 0xf85b83b1
.word 0xf9002234
.word 0x91000ed6
b __exception_handler_entry
Label_431:
.word 0xf9000100
.word 0x38403ec8
.word 0x91000108
.word 0xf8685aa9
.word 0xd61f0120
.global _dispatch_table_1_103
_dispatch_table_1_103:
.word 0xf8008680
.word 0xf85b83b1
.word 0xf9002234
.word 0x784012c8
.word 0xf85b83b1
.word 0xd2800009
.word 0xaa0903e3
.word 0xaa0803e2
.word 0xaa1103e1
.word 0xaa1303e0
.word 0xa9bf7ffe
bl _close_lexical_var
.word 0xa8c17ffe
.word 0x38403ec8
.word 0x91000108
.word 0xf8685aa9
.word 0xd61f0120
.global _dispatch_table_2_103
_dispatch_table_2_103:
.word 0xa8810680
.word 0xf85b83b1
.word 0xf9002234
.global _dispatch_table_0_103
_dispatch_table_0_103:
.word 0x784012c8
.word 0xf85b83b1
.word 0xd2800009
.word 0xaa0903e3
.word 0xaa0803e2
.word 0xaa1103e1
.word 0xaa1303e0
.word 0xa9bf7ffe
bl _close_lexical_var
.word 0xa8c17ffe
.word 0x38403ec8
.word 0x91000108
.word 0xf8685aa9
.word 0xd61f0120
.global _dispatch_table_0_104
_dispatch_table_0_104:
.word 0xf85f8e84
.word 0xb2400be9
.word 0xeb090088
cbnz x8, Label_432
.word 0xb88012c3
.word 0x91000463
.word 0x38405ec8
.word 0x91000108
.word 0xf8685aa9
.word 0xd61f0120
Label_432:
.word 0xb27f07e9
.word 0xeb090088
cbnz x8, Label_433
.word 0xb88012c3
.word 0x91000463
.word 0xab0302d6
.word 0x394002c8
.word 0x91000108
.word 0xf8685aa9
.word 0xd61f0120
Label_433:
.word 0xf2503c88
.word 0xb24f3be9
.word 0xeb090108
cbnz x8, Label_434
.word 0x2a0403e8
.word 0xb88012c3
.word 0x91000463
cbnz x8, Label_437
.word 0xab0302d6
.word 0x394002c8
.word 0x91000108
.word 0xf8685aa9
.word 0xd61f0120
Label_437:
.word 0x38405ec8
.word 0x91000108
.word 0xf8685aa9
.word 0xd61f0120
Label_434:
.word 0xf1004888
cbnz x8, Label_435
.word 0xb88012c3
.word 0x91000463
.word 0xab0302d6
.word 0x394002c8
.word 0x91000108
.word 0xf8685aa9
.word 0xd61f0120
Label_435:
.word 0xf1000888
cbnz x8, Label_436
.word 0xb88012c3
.word 0x91000463
.word 0xab0302d6
.word 0x394002c8
.word 0x91000108
.word 0xf8685aa9
.word 0xd61f0120
Label_436:
.word 0xaa0403e1
.word 0xaa1303e0
.word 0xa9bf7ffe
bl _JS_ToBoolFree_GC
.word 0xa8c17ffe
.word 0xaa0003e8
.word 0xb88012c3
.word 0x91000463
cbnz x8, Label_439
.word 0xab0302d6
.word 0x394002c8
.word 0x91000108
.word 0xf8685aa9
.word 0xd61f0120
Label_439:
.word 0x38405ec8
.word 0x91000108
.word 0xf8685aa9
.word 0xd61f0120
.global _dispatch_table_1_104
_dispatch_table_1_104:
.word 0xaa0003e4
.word 0xb2400be9
.word 0xeb090088
cbnz x8, Label_441
.word 0xb88012c3
.word 0x91000463
.word 0x38405ec8
.word 0x91000108
.word 0xf8685aa9
.word 0xd61f0120
Label_441:
.word 0xb27f07e9
.word 0xeb090088
cbnz x8, Label_442
.word 0xb88012c3
.word 0x91000463
.word 0xab0302d6
.word 0x394002c8
.word 0x91000108
.word 0xf8685aa9
.word 0xd61f0120
Label_442:
.word 0xf2503c88
.word 0xb24f3be9
.word 0xeb090108
cbnz x8, Label_443
.word 0x2a0403e8
.word 0xb88012c3
.word 0x91000463
cbnz x8, Label_446
.word 0xab0302d6
.word 0x394002c8
.word 0x91000108
.word 0xf8685aa9
.word 0xd61f0120
Label_446:
.word 0x38405ec8
.word 0x91000108
.word 0xf8685aa9
.word 0xd61f0120
Label_443:
.word 0xf1004888
cbnz x8, Label_444
.word 0xb88012c3
.word 0x91000463
.word 0xab0302d6
.word 0x394002c8
.word 0x91000108
.word 0xf8685aa9
.word 0xd61f0120
Label_444:
.word 0xf1000888
cbnz x8, Label_445
.word 0xb88012c3
.word 0x91000463
.word 0xab0302d6
.word 0x394002c8
.word 0x91000108
.word 0xf8685aa9
.word 0xd61f0120
Label_445:
.word 0xaa0403e1
.word 0xaa1303e0
.word 0xa9bf7ffe
bl _JS_ToBoolFree_GC
.word 0xa8c17ffe
.word 0xaa0003e8
.word 0xb88012c3
.word 0x91000463
cbnz x8, Label_448
.word 0xab0302d6
.word 0x394002c8
.word 0x91000108
.word 0xf8685aa9
.word 0xd61f0120
Label_448:
.word 0x38405ec8
.word 0x91000108
.word 0xf8685aa9
.word 0xd61f0120
.global _dispatch_table_2_104
_dispatch_table_2_104:
.word 0xaa0103e4
.word 0xb2400be9
.word 0xeb090088
cbnz x8, Label_450
.word 0xb88012c3
.word 0x91000463
.word 0x38405ec8
.word 0x9103c908
.word 0xf8685aa9
.word 0xd61f0120
Label_450:
.word 0xb27f07e9
.word 0xeb090088
cbnz x8, Label_451
.word 0xb88012c3
.word 0x91000463
.word 0xab0302d6
.word 0x394002c8
.word 0x9103c908
.word 0xf8685aa9
.word 0xd61f0120
Label_451:
.word 0xf2503c88
.word 0xb24f3be9
.word 0xeb090108
cbnz x8, Label_452
.word 0x2a0403e8
.word 0xb88012c3
.word 0x91000463
cbnz x8, Label_455
.word 0xab0302d6
.word 0x394002c8
.word 0x9103c908
.word 0xf8685aa9
.word 0xd61f0120
Label_455:
.word 0x38405ec8
.word 0x9103c908
.word 0xf8685aa9
.word 0xd61f0120
Label_452:
.word 0xf1004888
cbnz x8, Label_453
.word 0xb88012c3
.word 0x91000463
.word 0xab0302d6
.word 0x394002c8
.word 0x9103c908
.word 0xf8685aa9
.word 0xd61f0120
Label_453:
.word 0xf1000888
cbnz x8, Label_454
.word 0xb88012c3
.word 0x91000463
.word 0xab0302d6
.word 0x394002c8
.word 0x9103c908
.word 0xf8685aa9
.word 0xd61f0120
Label_454:
.word 0xaa0003f9
.word 0xaa0403e1
.word 0xaa1303e0
.word 0xa9bf7ffe
bl _JS_ToBoolFree_GC
.word 0xa8c17ffe
.word 0xaa0003e8
.word 0xaa1903e0
.word 0xb88012c3
.word 0x91000463
cbnz x8, Label_457
.word 0xab0302d6
.word 0x394002c8
.word 0x9103c908
.word 0xf8685aa9
.word 0xd61f0120
Label_457:
.word 0x38405ec8
.word 0x9103c908
.word 0xf8685aa9
.word 0xd61f0120
.global _dispatch_table_0_105
_dispatch_table_0_105:
.word 0xf85f8e84
.word 0xb2400be9
.word 0xeb090088
cbnz x8, Label_459
.word 0xb88012c3
.word 0x91000463
.word 0xab0302d6
.word 0x394002c8
.word 0x91000108
.word 0xf8685aa9
.word 0xd61f0120
Label_459:
.word 0xb27f07e9
.word 0xeb090088
cbnz x8, Label_460
.word 0xb88012c3
.word 0x91000463
.word 0x38405ec8
.word 0x91000108
.word 0xf8685aa9
.word 0xd61f0120
Label_460:
.word 0xf2503c88
.word 0xb24f3be9
.word 0xeb090108
cbnz x8, Label_461
.word 0x2a0403e8
.word 0xb88012c3
.word 0x91000463
cbz x8, Label_464
.word 0xab0302d6
.word 0x394002c8
.word 0x91000108
.word 0xf8685aa9
.word 0xd61f0120
Label_464:
.word 0x38405ec8
.word 0x91000108
.word 0xf8685aa9
.word 0xd61f0120
Label_461:
.word 0xf1004888
cbnz x8, Label_462
.word 0xb88012c3
.word 0x91000463
.word 0x38405ec8
.word 0x91000108
.word 0xf8685aa9
.word 0xd61f0120
Label_462:
.word 0xf1000888
cbnz x8, Label_463
.word 0xb88012c3
.word 0x91000463
.word 0x38405ec8
.word 0x91000108
.word 0xf8685aa9
.word 0xd61f0120
Label_463:
.word 0xaa0403e1
.word 0xaa1303e0
.word 0xa9bf7ffe
bl _JS_ToBoolFree_GC
.word 0xa8c17ffe
.word 0xaa0003e8
.word 0xb88012c3
.word 0x91000463
cbz x8, Label_465
.word 0xab0302d6
.word 0x394002c8
.word 0x91000108
.word 0xf8685aa9
.word 0xd61f0120
Label_465:
.word 0x38405ec8
.word 0x91000108
.word 0xf8685aa9
.word 0xd61f0120
.global _dispatch_table_1_105
_dispatch_table_1_105:
.word 0xaa0003e4
.word 0xb2400be9
.word 0xeb090088
cbnz x8, Label_466
.word 0xb88012c3
.word 0x91000463
.word 0xab0302d6
.word 0x394002c8
.word 0x91000108
.word 0xf8685aa9
.word 0xd61f0120
Label_466:
.word 0xb27f07e9
.word 0xeb090088
cbnz x8, Label_467
.word 0xb88012c3
.word 0x91000463
.word 0x38405ec8
.word 0x91000108
.word 0xf8685aa9
.word 0xd61f0120
Label_467:
.word 0xf2503c88
.word 0xb24f3be9
.word 0xeb090108
cbnz x8, Label_468
.word 0x2a0403e8
.word 0xb88012c3
.word 0x91000463
cbz x8, Label_471
.word 0xab0302d6
.word 0x394002c8
.word 0x91000108
.word 0xf8685aa9
.word 0xd61f0120
Label_471:
.word 0x38405ec8
.word 0x91000108
.word 0xf8685aa9
.word 0xd61f0120
Label_468:
.word 0xf1004888
cbnz x8, Label_469
.word 0xb88012c3
.word 0x91000463
.word 0x38405ec8
.word 0x91000108
.word 0xf8685aa9
.word 0xd61f0120
Label_469:
.word 0xf1000888
cbnz x8, Label_470
.word 0xb88012c3
.word 0x91000463
.word 0x38405ec8
.word 0x91000108
.word 0xf8685aa9
.word 0xd61f0120
Label_470:
.word 0xaa0403e1
.word 0xaa1303e0
.word 0xa9bf7ffe
bl _JS_ToBoolFree_GC
.word 0xa8c17ffe
.word 0xaa0003e8
.word 0xb88012c3
.word 0x91000463
cbz x8, Label_472
.word 0xab0302d6
.word 0x394002c8
.word 0x91000108
.word 0xf8685aa9
.word 0xd61f0120
Label_472:
.word 0x38405ec8
.word 0x91000108
.word 0xf8685aa9
.word 0xd61f0120
.global _dispatch_table_2_105
_dispatch_table_2_105:
.word 0xaa0103e4
.word 0xb2400be9
.word 0xeb090088
cbnz x8, Label_473
.word 0xb88012c3
.word 0x91000463
.word 0xab0302d6
.word 0x394002c8
.word 0x9103c908
.word 0xf8685aa9
.word 0xd61f0120
Label_473:
.word 0xb27f07e9
.word 0xeb090088
cbnz x8, Label_474
.word 0xb88012c3
.word 0x91000463
.word 0x38405ec8
.word 0x9103c908
.word 0xf8685aa9
.word 0xd61f0120
Label_474:
.word 0xf2503c88
.word 0xb24f3be9
.word 0xeb090108
cbnz x8, Label_475
.word 0x2a0403e8
.word 0xb88012c3
.word 0x91000463
cbz x8, Label_478
.word 0xab0302d6
.word 0x394002c8
.word 0x9103c908
.word 0xf8685aa9
.word 0xd61f0120
Label_478:
.word 0x38405ec8
.word 0x9103c908
.word 0xf8685aa9
.word 0xd61f0120
Label_475:
.word 0xf1004888
cbnz x8, Label_476
.word 0xb88012c3
.word 0x91000463
.word 0x38405ec8
.word 0x9103c908
.word 0xf8685aa9
.word 0xd61f0120
Label_476:
.word 0xf1000888
cbnz x8, Label_477
.word 0xb88012c3
.word 0x91000463
.word 0x38405ec8
.word 0x9103c908
.word 0xf8685aa9
.word 0xd61f0120
Label_477:
.word 0xaa0003f9
.word 0xaa0403e1
.word 0xaa1303e0
.word 0xa9bf7ffe
bl _JS_ToBoolFree_GC
.word 0xa8c17ffe
.word 0xaa0003e8
.word 0xaa1903e0
.word 0xb88012c3
.word 0x91000463
cbz x8, Label_479
.word 0xab0302d6
.word 0x394002c8
.word 0x9103c908
.word 0xf8685aa9
.word 0xd61f0120
Label_479:
.word 0x38405ec8
.word 0x9103c908
.word 0xf8685aa9
.word 0xd61f0120
.global _dispatch_table_0_106
_dispatch_table_0_106:
.word 0xb88012c8
.word 0x91000508
.word 0xab0802d6
.word 0x394002c8
.word 0x91000108
.word 0xf8685aa9
.word 0xd61f0120
.global _dispatch_table_1_106
_dispatch_table_1_106:
.word 0xb88012c8
.word 0x91000508
.word 0xab0802d6
.word 0x394002c8
.word 0x9103c908
.word 0xf8685aa9
.word 0xd61f0120
.global _dispatch_table_2_106
_dispatch_table_2_106:
.word 0xb88012c8
.word 0x91000508
.word 0xab0802d6
.word 0x394002c8
.word 0x91079108
.word 0xf8685aa9
.word 0xd61f0120
.global _dispatch_table_0_107
_dispatch_table_0_107:
.word 0xb88012c8
.word 0x910006c0
.word 0x8b080000
.word 0xf85e83ac
.word 0xf9401983
.word 0xf9400463
.word 0xcb030000
.word 0xd370bc00
.word 0xd2800848
.word 0xaa080000
.word 0x38405ec8
.word 0x9103c908
.word 0xf8685aa9
.word 0xd61f0120
.global _dispatch_table_1_107
_dispatch_table_1_107:
.word 0xb88012c8
.word 0x910006c1
.word 0x8b080021
.word 0xf85e83ac
.word 0xf9401983
.word 0xf9400463
.word 0xcb030021
.word 0xd370bc21
.word 0xd2800848
.word 0xaa080021
.word 0x38405ec8
.word 0x91079108
.word 0xf8685aa9
.word 0xd61f0120
.global _dispatch_table_2_107
_dispatch_table_2_107:
.word 0xf8008680
.word 0xaa0103e0
.word 0xb88012c8
.word 0x910006c1
.word 0x8b080021
.word 0xf85e83ac
.word 0xf9401983
.word 0xf9400463
.word 0xcb030021
.word 0xd370bc21
.word 0xd2800848
.word 0xaa080021
.word 0x38405ec8
.word 0x91079108
.word 0xf8685aa9
.word 0xd61f0120
.global _dispatch_table_0_108
_dispatch_table_0_108:
.word 0xb84012c8
.word 0xf85e83ac
.word 0xf9401989
.word 0xf9400529
.word 0x910016d9
.word 0xcb090339
.word 0xb24f3b39
.word 0xaa1903e0
.word 0x91000508
.word 0xab0802d6
.word 0x394002c8
.word 0x9103c908
.word 0xf8685aa9
.word 0xd61f0120
.global _dispatch_table_1_108
_dispatch_table_1_108:
.word 0xb84012c8
.word 0xf85e83ac
.word 0xf9401989
.word 0xf9400529
.word 0x910016d9
.word 0xcb090339
.word 0xb24f3b39
.word 0xaa1903e1
.word 0x91000508
.word 0xab0802d6
.word 0x394002c8
.word 0x91079108
.word 0xf8685aa9
.word 0xd61f0120
.global _dispatch_table_2_108
_dispatch_table_2_108:
.word 0xb84012c8
.word 0xf85e83ac
.word 0xf9401989
.word 0xf9400529
.word 0x910016d9
.word 0xcb090339
.word 0xb24f3b39
.word 0xf8008680
.word 0xaa0103e0
.word 0xaa1903e1
.word 0x91000508
.word 0xab0802d6
.word 0x394002c8
.word 0x91079108
.word 0xf8685aa9
.word 0xd61f0120
.global _dispatch_table_0_109
_dispatch_table_0_109:
.word 0xf85f8e99
.word 0xf2503f28
.word 0xb24f3be9
.word 0xeb090108
cbnz x8, Label_480
.word 0x2a1903f9
.word 0xf85e83ac
.word 0xf9401989
.word 0xb9401128
.word 0x6b08033f
b.GE Label_480
.word 0xf9400529
.word 0x8b190129
.word 0xcb160129
.word 0xab0902d6
.word 0x394002c8
.word 0x91000108
.word 0xf8685aa9
.word 0xd61f0120
Label_480:
.word 0x910006d6
adr x1, Label_481
b Label_482
Label_481:
.asciz "invalid ret value"
.align 3
Label_482:
.word 0xaa1303e0
.word 0xa9bf7ffe
bl _LEPUS_ThrowInternalError
.word 0xa8c17ffe
b __exception_handler_entry
.global _dispatch_table_1_109
_dispatch_table_1_109:
.word 0xaa0003f9
.word 0xf2503f28
.word 0xb24f3be9
.word 0xeb090108
cbnz x8, Label_483
.word 0x2a1903f9
.word 0xf85e83ac
.word 0xf9401989
.word 0xb9401128
.word 0x6b08033f
b.GE Label_483
.word 0xf9400529
.word 0x8b190129
.word 0xcb160129
.word 0xab0902d6
.word 0x394002c8
.word 0x91000108
.word 0xf8685aa9
.word 0xd61f0120
Label_483:
.word 0xf8008680
.word 0x910006d6
adr x1, Label_484
b Label_485
Label_484:
.asciz "invalid ret value"
.align 3
Label_485:
.word 0xaa1303e0
.word 0xa9bf7ffe
bl _LEPUS_ThrowInternalError
.word 0xa8c17ffe
b __exception_handler_entry
.global _dispatch_table_2_109
_dispatch_table_2_109:
.word 0xaa0103f9
.word 0xf2503f28
.word 0xb24f3be9
.word 0xeb090108
cbnz x8, Label_486
.word 0x2a1903f9
.word 0xf85e83ac
.word 0xf9401989
.word 0xb9401128
.word 0x6b08033f
b.GE Label_486
.word 0xf9400529
.word 0x8b190129
.word 0xcb160129
.word 0xab0902d6
.word 0x394002c8
.word 0x9103c908
.word 0xf8685aa9
.word 0xd61f0120
Label_486:
.word 0xf8008680
.word 0xf8008681
.word 0x910006d6
adr x1, Label_487
b Label_488
Label_487:
.asciz "invalid ret value"
.align 3
Label_488:
.word 0xaa1303e0
.word 0xa9bf7ffe
bl _LEPUS_ThrowInternalError
.word 0xa8c17ffe
b __exception_handler_entry
.global _dispatch_table_0_110
_dispatch_table_0_110:
.word 0xf85f8e99
.word 0xaa1903e0
.word 0xd2800048
.word 0xf2ffffc8
.word 0xea19011f
b.EQ Label_489
.word 0xf8008699
.word 0xf85b83b1
.word 0xf9002234
.word 0xaa1903e1
.word 0xaa1303e0
.word 0xa9bf7ffe
bl _JS_ToObject_GC
.word 0xa8c17ffe
.word 0xd1002294
.word 0xf102081f
b.NE Label_491
.word 0xf8008699
.word 0x910006d6
.word 0xf85b83b1
.word 0xf9002234
b __exception_handler_entry
Label_491:
Label_489:
.word 0x38401ec8
.word 0x9103c908
.word 0xf8685aa9
.word 0xd61f0120
.global _dispatch_table_1_110
_dispatch_table_1_110:
.word 0xd2800048
.word 0xf2ffffc8
.word 0xea00011f
b.EQ Label_492
.word 0xaa0003f9
.word 0xf8008699
.word 0xf85b83b1
.word 0xf9002234
.word 0xaa0003e1
.word 0xaa1303e0
.word 0xa9bf7ffe
bl _JS_ToObject_GC
.word 0xa8c17ffe
.word 0xd1002294
.word 0xf102081f
b.NE Label_494
.word 0xf8008699
.word 0x910006d6
.word 0xf85b83b1
.word 0xf9002234
b __exception_handler_entry
Label_494:
Label_492:
.word 0x38401ec8
.word 0x9103c908
.word 0xf8685aa9
.word 0xd61f0120
.global _dispatch_table_2_110
_dispatch_table_2_110:
.word 0xd2800048
.word 0xf2ffffc8
.word 0xea01011f
b.EQ Label_495
.word 0xf8008680
.word 0xaa0103f9
.word 0xf8008699
.word 0xf85b83b1
.word 0xf9002234
.word 0xaa1303e0
.word 0xa9bf7ffe
bl _JS_ToObject_GC
.word 0xa8c17ffe
.word 0xd1002294
.word 0xf102081f
b.NE Label_497
.word 0xf8008699
.word 0x910006d6
.word 0xf85b83b1
.word 0xf9002234
b __exception_handler_entry
Label_497:
.word 0xaa0003e1
.word 0xf85f8e80
Label_495:
.word 0x38401ec8
.word 0x91079108
.word 0xf8685aa9
.word 0xd61f0120
.global _dispatch_table_0_111
_dispatch_table_0_111:
.word 0xa9ff0680
.word 0xf2503c28
.word 0xb24f3be9
.word 0xeb090108
cbnz x8, Label_498
b Label_502
Label_498:
.word 0xb25047e9
.word 0xea090039
.word 0xd2800048
.word 0xf2e00028
.word 0xeb08033f
b.NE Label_499
b Label_502
Label_499:
.word 0xb25047e9
.word 0xea090039
.word 0xd2800028
.word 0xf2e00028
.word 0xeb08033f
b.NE Label_500
b Label_502
Label_500:
.word 0xb25047e9
.word 0xea090039
.word 0xb25047e8
.word 0xeb08033f
b.NE Label_503
b Label_502
Label_503:
.word 0xf8008680
.word 0xaa0103f9
.word 0xf8008681
.word 0xf85b83b1
.word 0xf9002234
.word 0xaa1303e0
.word 0xa9bf7ffe
bl _LEPUS_ToPropertyKey
.word 0xa8c17ffe
.word 0xd1002294
.word 0xf102081f
b.NE Label_505
.word 0xf8008699
.word 0x910006d6
.word 0xf85b83b1
.word 0xf9002234
b __exception_handler_entry
Label_505:
.word 0xf8008680
.word 0xf85f8e81
.word 0xf85f8e80
Label_502:
.word 0x38401ec8
.word 0x91079108
.word 0xf8685aa9
.word 0xd61f0120
.global _dispatch_table_1_111
_dispatch_table_1_111:
.word 0xaa0003e1
.word 0xf85f8e80
.global _dispatch_table_2_111
_dispatch_table_2_111:
.word 0xf2503c28
.word 0xb24f3be9
.word 0xeb090108
cbnz x8, Label_506
b Label_510
Label_506:
.word 0xb25047e9
.word 0xea090039
.word 0xd2800048
.word 0xf2e00028
.word 0xeb08033f
b.NE Label_507
b Label_510
Label_507:
.word 0xb25047e9
.word 0xea090039
.word 0xd2800028
.word 0xf2e00028
.word 0xeb08033f
b.NE Label_508
b Label_510
Label_508:
.word 0xb25047e9
.word 0xea090039
.word 0xb25047e8
.word 0xeb08033f
b.NE Label_511
b Label_510
Label_511:
.word 0xf8008680
.word 0xaa0103f9
.word 0xf8008681
.word 0xf85b83b1
.word 0xf9002234
.word 0xaa1303e0
.word 0xa9bf7ffe
bl _LEPUS_ToPropertyKey
.word 0xa8c17ffe
.word 0xd1002294
.word 0xf102081f
b.NE Label_513
.word 0xf8008699
.word 0x910006d6
.word 0xf85b83b1
.word 0xf9002234
b __exception_handler_entry
Label_513:
.word 0xf8008680
.word 0xf85f8e81
.word 0xf85f8e80
Label_510:
.word 0x38401ec8
.word 0x91079108
.word 0xf8685aa9
.word 0xd61f0120
.global _dispatch_table_0_112
_dispatch_table_0_112:
.word 0xa9ff0680
Label_514:
.word 0xd2800248
.word 0xeb08001f
b.NE Label_515
.word 0xf8008680
.word 0xf8008681
.word 0x910006d6
adr x1, Label_523
b Label_524
Label_523:
.asciz "value has no property"
.align 3
Label_524:
.word 0xf85b83b1
.word 0xf9002234
.word 0xaa1303e0
.word 0xa9bf7ffe
bl _LEPUS_ThrowTypeError
.word 0xa8c17ffe
.word 0xf85b83b1
.word 0xf9002234
b __exception_handler_entry
Label_515:
.word 0xb27f03e8
.word 0xeb08001f
b.NE Label_516
.word 0xf8008680
.word 0xf8008681
.word 0x910006d6
adr x1, Label_525
b Label_526
Label_525:
.asciz "value has no property"
.align 3
Label_526:
.word 0xf85b83b1
.word 0xf9002234
.word 0xaa1303e0
.word 0xa9bf7ffe
bl _LEPUS_ThrowTypeError
.word 0xa8c17ffe
.word 0xf85b83b1
.word 0xf9002234
b __exception_handler_entry
Label_516:
.word 0xf2503c28
.word 0xb24f3be9
.word 0xeb090108
cbnz x8, Label_517
b Label_522
Label_517:
.word 0xb25047e9
.word 0xea090039
.word 0xd2800048
.word 0xf2e00028
.word 0xeb08033f
b.NE Label_518
b Label_522
Label_518:
.word 0xb25047e9
.word 0xea090039
.word 0xd2800028
.word 0xf2e00028
.word 0xeb08033f
b.NE Label_519
b Label_522
Label_519:
.word 0xb25047e9
.word 0xea090039
.word 0xb25047e8
.word 0xeb08033f
b.NE Label_521
b Label_522
Label_521:
.word 0xf8008680
.word 0xaa0103f9
.word 0xf8008681
.word 0xf85b83b1
.word 0xf9002234
.word 0xaa1303e0
.word 0xa9bf7ffe
bl _LEPUS_ToPropertyKey
.word 0xa8c17ffe
.word 0xd1002294
.word 0xf102081f
b.NE Label_528
.word 0xf8008699
.word 0x910006d6
.word 0xf85b83b1
.word 0xf9002234
b __exception_handler_entry
Label_528:
.word 0xf8008680
.word 0xf85f8e81
.word 0xf85f8e80
Label_522:
.word 0x38401ec8
.word 0x91079108
.word 0xf8685aa9
.word 0xd61f0120
.global _dispatch_table_1_112
_dispatch_table_1_112:
.word 0xaa0003e1
.word 0xf85f8e80
.global _dispatch_table_2_112
_dispatch_table_2_112:
Label_529:
.word 0xd2800248
.word 0xeb08001f
b.NE Label_530
.word 0xf8008680
.word 0xf8008681
.word 0x910006d6
adr x1, Label_538
b Label_539
Label_538:
.asciz "value has no property"
.align 3
Label_539:
.word 0xf85b83b1
.word 0xf9002234
.word 0xaa1303e0
.word 0xa9bf7ffe
bl _LEPUS_ThrowTypeError
.word 0xa8c17ffe
.word 0xf85b83b1
.word 0xf9002234
b __exception_handler_entry
Label_530:
.word 0xb27f03e8
.word 0xeb08001f
b.NE Label_531
.word 0xf8008680
.word 0xf8008681
.word 0x910006d6
adr x1, Label_540
b Label_541
Label_540:
.asciz "value has no property"
.align 3
Label_541:
.word 0xf85b83b1
.word 0xf9002234
.word 0xaa1303e0
.word 0xa9bf7ffe
bl _LEPUS_ThrowTypeError
.word 0xa8c17ffe
.word 0xf85b83b1
.word 0xf9002234
b __exception_handler_entry
Label_531:
.word 0xf2503c28
.word 0xb24f3be9
.word 0xeb090108
cbnz x8, Label_532
b Label_537
Label_532:
.word 0xb25047e9
.word 0xea090039
.word 0xd2800048
.word 0xf2e00028
.word 0xeb08033f
b.NE Label_533
b Label_537
Label_533:
.word 0xb25047e9
.word 0xea090039
.word 0xd2800028
.word 0xf2e00028
.word 0xeb08033f
b.NE Label_534
b Label_537
Label_534:
.word 0xb25047e9
.word 0xea090039
.word 0xb25047e8
.word 0xeb08033f
b.NE Label_536
b Label_537
Label_536:
.word 0xf8008680
.word 0xaa0103f9
.word 0xf8008681
.word 0xf85b83b1
.word 0xf9002234
.word 0xaa1303e0
.word 0xa9bf7ffe
bl _LEPUS_ToPropertyKey
.word 0xa8c17ffe
.word 0xd1002294
.word 0xf102081f
b.NE Label_543
.word 0xf8008699
.word 0x910006d6
.word 0xf85b83b1
.word 0xf9002234
b __exception_handler_entry
Label_543:
.word 0xf8008680
.word 0xf85f8e81
.word 0xf85f8e80
Label_537:
.word 0x38401ec8
.word 0x91079108
.word 0xf8685aa9
.word 0xd61f0120
.global _dispatch_table_1_113
_dispatch_table_1_113:
.word 0xf8008680
.word 0xf85b83b1
.word 0xf9002234
.word 0xb84012c8
.word 0x394026ca
.word 0xd2800e24
.word 0xf85b83b1
.word 0xf9002234
.word 0xaa0a03e3
.word 0xaa0803e2
.word 0xaa1403e1
.word 0xaa1303e0
.word 0xa9bf7ffe
bl _prim_js_with_op_gc
.word 0xa8c17ffe
.word 0x7100001f
b.GE Label_544
.word 0x91002ad6
.word 0xf85b83b1
.word 0xf9002234
b __exception_handler_entry
Label_544:
cbz x0, Label_545
.word 0xb88052c9
.word 0x91001529
.word 0xab0902d6
.word 0x394002c8
.word 0x91000108
.word 0xf8685aa9
.word 0xd61f0120
Label_545:
.word 0xd1002294
.word 0x3840aec8
.word 0x91000108
.word 0xf8685aa9
.word 0xd61f0120
.global _dispatch_table_2_113
_dispatch_table_2_113:
.word 0xa8810680
.word 0xf85b83b1
.word 0xf9002234
.global _dispatch_table_0_113
_dispatch_table_0_113:
.word 0xb84012c8
.word 0x394026ca
.word 0xd2800e24
.word 0xf85b83b1
.word 0xf9002234
.word 0xaa0a03e3
.word 0xaa0803e2
.word 0xaa1403e1
.word 0xaa1303e0
.word 0xa9bf7ffe
bl _prim_js_with_op_gc
.word 0xa8c17ffe
.word 0x7100001f
b.GE Label_546
.word 0x91002ad6
.word 0xf85b83b1
.word 0xf9002234
b __exception_handler_entry
Label_546:
cbz x0, Label_547
.word 0xb88052c9
.word 0x91001529
.word 0xab0902d6
.word 0x394002c8
.word 0x91000108
.word 0xf8685aa9
.word 0xd61f0120
Label_547:
.word 0xd1002294
.word 0x3840aec8
.word 0x91000108
.word 0xf8685aa9
.word 0xd61f0120
.global _dispatch_table_1_114
_dispatch_table_1_114:
.word 0xf8008680
.word 0xf85b83b1
.word 0xf9002234
.word 0xb84012c8
.word 0x394026ca
.word 0xd2800e44
.word 0xf85b83b1
.word 0xf9002234
.word 0xaa0a03e3
.word 0xaa0803e2
.word 0xaa1403e1
.word 0xaa1303e0
.word 0xa9bf7ffe
bl _prim_js_with_op_gc
.word 0xa8c17ffe
.word 0x7100001f
b.GE Label_548
.word 0x91002ad6
.word 0xf85b83b1
.word 0xf9002234
b __exception_handler_entry
Label_548:
cbz x0, Label_549
.word 0xd1004294
.word 0xb88052c9
.word 0x91001529
.word 0xab0902d6
.word 0x394002c8
.word 0x91000108
.word 0xf8685aa9
.word 0xd61f0120
Label_549:
.word 0xd1002294
.word 0x3840aec8
.word 0x91000108
.word 0xf8685aa9
.word 0xd61f0120
.global _dispatch_table_2_114
_dispatch_table_2_114:
.word 0xa8810680
.word 0xf85b83b1
.word 0xf9002234
.global _dispatch_table_0_114
_dispatch_table_0_114:
.word 0xb84012c8
.word 0x394026ca
.word 0xd2800e44
.word 0xf85b83b1
.word 0xf9002234
.word 0xaa0a03e3
.word 0xaa0803e2
.word 0xaa1403e1
.word 0xaa1303e0
.word 0xa9bf7ffe
bl _prim_js_with_op_gc
.word 0xa8c17ffe
.word 0x7100001f
b.GE Label_550
.word 0x91002ad6
.word 0xf85b83b1
.word 0xf9002234
b __exception_handler_entry
Label_550:
cbz x0, Label_551
.word 0xd1004294
.word 0xb88052c9
.word 0x91001529
.word 0xab0902d6
.word 0x394002c8
.word 0x91000108
.word 0xf8685aa9
.word 0xd61f0120
Label_551:
.word 0xd1002294
.word 0x3840aec8
.word 0x91000108
.word 0xf8685aa9
.word 0xd61f0120
.global _dispatch_table_1_115
_dispatch_table_1_115:
.word 0xf8008680
.word 0xf85b83b1
.word 0xf9002234
.word 0xb84012c8
.word 0x394026ca
.word 0xd2800e64
.word 0xf85b83b1
.word 0xf9002234
.word 0xaa0a03e3
.word 0xaa0803e2
.word 0xaa1403e1
.word 0xaa1303e0
.word 0xa9bf7ffe
bl _prim_js_with_op_gc
.word 0xa8c17ffe
.word 0x7100001f
b.GE Label_552
.word 0x91002ad6
.word 0xf85b83b1
.word 0xf9002234
b __exception_handler_entry
Label_552:
cbz x0, Label_553
.word 0xb88052c9
.word 0x91001529
.word 0xab0902d6
.word 0x394002c8
.word 0x91000108
.word 0xf8685aa9
.word 0xd61f0120
Label_553:
.word 0xd1002294
.word 0x3840aec8
.word 0x91000108
.word 0xf8685aa9
.word 0xd61f0120
.global _dispatch_table_2_115
_dispatch_table_2_115:
.word 0xa8810680
.word 0xf85b83b1
.word 0xf9002234
.global _dispatch_table_0_115
_dispatch_table_0_115:
.word 0xb84012c8
.word 0x394026ca
.word 0xd2800e64
.word 0xf85b83b1
.word 0xf9002234
.word 0xaa0a03e3
.word 0xaa0803e2
.word 0xaa1403e1
.word 0xaa1303e0
.word 0xa9bf7ffe
bl _prim_js_with_op_gc
.word 0xa8c17ffe
.word 0x7100001f
b.GE Label_554
.word 0x91002ad6
.word 0xf85b83b1
.word 0xf9002234
b __exception_handler_entry
Label_554:
cbz x0, Label_555
.word 0xb88052c9
.word 0x91001529
.word 0xab0902d6
.word 0x394002c8
.word 0x91000108
.word 0xf8685aa9
.word 0xd61f0120
Label_555:
.word 0xd1002294
.word 0x3840aec8
.word 0x91000108
.word 0xf8685aa9
.word 0xd61f0120
.global _dispatch_table_1_116
_dispatch_table_1_116:
.word 0xf8008680
.word 0xf85b83b1
.word 0xf9002234
.word 0xb84012c8
.word 0x394026ca
.word 0xd2800e84
.word 0xf85b83b1
.word 0xf9002234
.word 0xaa0a03e3
.word 0xaa0803e2
.word 0xaa1403e1
.word 0xaa1303e0
.word 0xa9bf7ffe
bl _prim_js_with_op_gc
.word 0xa8c17ffe
.word 0x7100001f
b.GE Label_556
.word 0x91002ad6
.word 0xf85b83b1
.word 0xf9002234
b __exception_handler_entry
Label_556:
cbz x0, Label_557
.word 0x91002294
.word 0xb88052c3
.word 0x91001463
.word 0xab0302d6
.word 0x394002c8
.word 0x91000108
.word 0xf8685aa9
.word 0xd61f0120
Label_557:
.word 0xd1002294
.word 0x3840aec8
.word 0x91000108
.word 0xf8685aa9
.word 0xd61f0120
.global _dispatch_table_2_116
_dispatch_table_2_116:
.word 0xa8810680
.word 0xf85b83b1
.word 0xf9002234
.global _dispatch_table_0_116
_dispatch_table_0_116:
.word 0xb84012c8
.word 0x394026ca
.word 0xd2800e84
.word 0xf85b83b1
.word 0xf9002234
.word 0xaa0a03e3
.word 0xaa0803e2
.word 0xaa1403e1
.word 0xaa1303e0
.word 0xa9bf7ffe
bl _prim_js_with_op_gc
.word 0xa8c17ffe
.word 0x7100001f
b.GE Label_558
.word 0x91002ad6
.word 0xf85b83b1
.word 0xf9002234
b __exception_handler_entry
Label_558:
cbz x0, Label_559
.word 0x91002294
.word 0xb88052c3
.word 0x91001463
.word 0xab0302d6
.word 0x394002c8
.word 0x91000108
.word 0xf8685aa9
.word 0xd61f0120
Label_559:
.word 0xd1002294
.word 0x3840aec8
.word 0x91000108
.word 0xf8685aa9
.word 0xd61f0120
.global _dispatch_table_1_117
_dispatch_table_1_117:
.word 0xf8008680
.word 0xf85b83b1
.word 0xf9002234
.word 0xb84012c8
.word 0x394026ca
.word 0xd2800ea4
.word 0xf85b83b1
.word 0xf9002234
.word 0xaa0a03e3
.word 0xaa0803e2
.word 0xaa1403e1
.word 0xaa1303e0
.word 0xa9bf7ffe
bl _prim_js_with_op_gc
.word 0xa8c17ffe
.word 0x7100001f
b.GE Label_560
.word 0x91002ad6
.word 0xf85b83b1
.word 0xf9002234
b __exception_handler_entry
Label_560:
cbz x0, Label_561
.word 0x91002294
.word 0xb88052c9
.word 0x91001529
.word 0xab0902d6
.word 0x394002c8
.word 0x91000108
.word 0xf8685aa9
.word 0xd61f0120
Label_561:
.word 0xd1002294
.word 0x3840aec8
.word 0x91000108
.word 0xf8685aa9
.word 0xd61f0120
.global _dispatch_table_2_117
_dispatch_table_2_117:
.word 0xa8810680
.word 0xf85b83b1
.word 0xf9002234
.global _dispatch_table_0_117
_dispatch_table_0_117:
.word 0xb84012c8
.word 0x394026ca
.word 0xd2800ea4
.word 0xf85b83b1
.word 0xf9002234
.word 0xaa0a03e3
.word 0xaa0803e2
.word 0xaa1403e1
.word 0xaa1303e0
.word 0xa9bf7ffe
bl _prim_js_with_op_gc
.word 0xa8c17ffe
.word 0x7100001f
b.GE Label_562
.word 0x91002ad6
.word 0xf85b83b1
.word 0xf9002234
b __exception_handler_entry
Label_562:
cbz x0, Label_563
.word 0x91002294
.word 0xb88052c9
.word 0x91001529
.word 0xab0902d6
.word 0x394002c8
.word 0x91000108
.word 0xf8685aa9
.word 0xd61f0120
Label_563:
.word 0xd1002294
.word 0x3840aec8
.word 0x91000108
.word 0xf8685aa9
.word 0xd61f0120
.global _dispatch_table_1_118
_dispatch_table_1_118:
.word 0xf8008680
.word 0xf85b83b1
.word 0xf9002234
.word 0xb84012c8
.word 0x394026ca
.word 0xd2800ec4
.word 0xf85b83b1
.word 0xf9002234
.word 0xaa0a03e3
.word 0xaa0803e2
.word 0xaa1403e1
.word 0xaa1303e0
.word 0xa9bf7ffe
bl _prim_js_with_op_gc
.word 0xa8c17ffe
.word 0x7100001f
b.GE Label_564
.word 0x91002ad6
.word 0xf85b83b1
.word 0xf9002234
b __exception_handler_entry
Label_564:
cbz x0, Label_565
.word 0x91002294
.word 0xb88052c9
.word 0x91001529
.word 0xab0902d6
.word 0x394002c8
.word 0x91000108
.word 0xf8685aa9
.word 0xd61f0120
Label_565:
.word 0xd1002294
.word 0x3840aec8
.word 0x91000108
.word 0xf8685aa9
.word 0xd61f0120
.global _dispatch_table_2_118
_dispatch_table_2_118:
.word 0xa8810680
.word 0xf85b83b1
.word 0xf9002234
.global _dispatch_table_0_118
_dispatch_table_0_118:
.word 0xb84012c8
.word 0x394026ca
.word 0xd2800ec4
.word 0xf85b83b1
.word 0xf9002234
.word 0xaa0a03e3
.word 0xaa0803e2
.word 0xaa1403e1
.word 0xaa1303e0
.word 0xa9bf7ffe
bl _prim_js_with_op_gc
.word 0xa8c17ffe
.word 0x7100001f
b.GE Label_566
.word 0x91002ad6
.word 0xf85b83b1
.word 0xf9002234
b __exception_handler_entry
Label_566:
cbz x0, Label_567
.word 0x91002294
.word 0xb88052c9
.word 0x91001529
.word 0xab0902d6
.word 0x394002c8
.word 0x91000108
.word 0xf8685aa9
.word 0xd61f0120
Label_567:
.word 0xd1002294
.word 0x3840aec8
.word 0x91000108
.word 0xf8685aa9
.word 0xd61f0120
.global _dispatch_table_1_119
_dispatch_table_1_119:
.word 0xf8008680
.word 0xf85b83b1
.word 0xf9002234
.word 0xb27f03e1
.word 0xf85b83b1
.word 0xf9002234
.word 0xaa1303e0
.word 0xa9bf7ffe
bl _LEPUS_NewObjectProto
.word 0xa8c17ffe
.word 0xf8008680
.word 0xf102081f
b.NE Label_570
.word 0x91001ed6
.word 0xf85b83b1
.word 0xf9002234
b __exception_handler_entry
Label_570:
.word 0x784052c9
.word 0xf85b83b1
.word 0xd2800003
.word 0xf9002234
.word 0xaa0903e2
.word 0xaa1103e1
.word 0xaa1303e0
.word 0xa9bf7ffe
bl _get_var_ref
.word 0xa8c17ffe
.word 0xaa0003f9
cbnz x0, Label_568
.word 0x91001ed6
b __exception_handler_entry
Label_568:
.word 0xf85f8281
.word 0xb84012c8
.word 0xd2800443
.word 0xf8008699
.word 0xf85b83b1
.word 0xf9002234
.word 0xaa0803e2
.word 0xaa1303e0
.word 0xa9bf7ffe
bl _add_property_gc
.word 0xa8c17ffe
Label_569:
.word 0xd2800008
.word 0xaa1903e2
.word 0xaa0803e1
.word 0xa9bf7ffe
bl _prim_HeapObjStorePtr
.word 0xa8c17ffe
.word 0xb84012c8
.word 0xaa0803e1
.word 0xaa1303e0
.word 0xa9bf7ffe
bl _LEPUS_AtomToValue
.word 0xa8c17ffe
.word 0xd1002294
.word 0xf8008680
.word 0x38407ec8
.word 0x91000108
.word 0xf8685aa9
.word 0xd61f0120
.global _dispatch_table_2_119
_dispatch_table_2_119:
.word 0xa8810680
.word 0xf85b83b1
.word 0xf9002234
.global _dispatch_table_0_119
_dispatch_table_0_119:
.word 0xb27f03e1
.word 0xf85b83b1
.word 0xf9002234
.word 0xaa1303e0
.word 0xa9bf7ffe
bl _LEPUS_NewObjectProto
.word 0xa8c17ffe
.word 0xf8008680
.word 0xf102081f
b.NE Label_573
.word 0x91001ed6
.word 0xf85b83b1
.word 0xf9002234
b __exception_handler_entry
Label_573:
.word 0x784052c9
.word 0xf85b83b1
.word 0xd2800003
.word 0xf9002234
.word 0xaa0903e2
.word 0xaa1103e1
.word 0xaa1303e0
.word 0xa9bf7ffe
bl _get_var_ref
.word 0xa8c17ffe
.word 0xaa0003f9
cbnz x0, Label_571
.word 0x91001ed6
b __exception_handler_entry
Label_571:
.word 0xf85f8281
.word 0xb84012c8
.word 0xd2800443
.word 0xf8008699
.word 0xf85b83b1
.word 0xf9002234
.word 0xaa0803e2
.word 0xaa1303e0
.word 0xa9bf7ffe
bl _add_property_gc
.word 0xa8c17ffe
Label_572:
.word 0xd2800008
.word 0xaa1903e2
.word 0xaa0803e1
.word 0xa9bf7ffe
bl _prim_HeapObjStorePtr
.word 0xa8c17ffe
.word 0xb84012c8
.word 0xaa0803e1
.word 0xaa1303e0
.word 0xa9bf7ffe
bl _LEPUS_AtomToValue
.word 0xa8c17ffe
.word 0xd1002294
.word 0xf8008680
.word 0x38407ec8
.word 0x91000108
.word 0xf8685aa9
.word 0xd61f0120
.global _dispatch_table_1_120
_dispatch_table_1_120:
.word 0xf8008680
.word 0xf85b83b1
.word 0xf9002234
.word 0xb27f03e1
.word 0xf85b83b1
.word 0xf9002234
.word 0xaa1303e0
.word 0xa9bf7ffe
bl _LEPUS_NewObjectProto
.word 0xa8c17ffe
.word 0xf8008680
.word 0xf102081f
b.NE Label_576
.word 0x91001ed6
.word 0xf85b83b1
.word 0xf9002234
b __exception_handler_entry
Label_576:
.word 0x784052c9
.word 0xf85b83b1
.word 0xb24003e3
.word 0xf9002234
.word 0xaa0903e2
.word 0xaa1103e1
.word 0xaa1303e0
.word 0xa9bf7ffe
bl _get_var_ref
.word 0xa8c17ffe
.word 0xaa0003f9
cbnz x0, Label_574
.word 0x91001ed6
b __exception_handler_entry
Label_574:
.word 0xf85f8281
.word 0xb84012c8
.word 0xd2800443
.word 0xf8008680
.word 0xf85b83b1
.word 0xf9002234
.word 0xaa0803e2
.word 0xaa1303e0
.word 0xa9bf7ffe
bl _add_property_gc
.word 0xa8c17ffe
Label_575:
.word 0xd2800008
.word 0xaa1903e2
.word 0xaa0803e1
.word 0xa9bf7ffe
bl _prim_HeapObjStorePtr
.word 0xa8c17ffe
.word 0xb84012c8
.word 0xaa0803e1
.word 0xaa1303e0
.word 0xa9bf7ffe
bl _LEPUS_AtomToValue
.word 0xa8c17ffe
.word 0xd1002294
.word 0xf8008680
.word 0x38407ec8
.word 0x91000108
.word 0xf8685aa9
.word 0xd61f0120
.global _dispatch_table_2_120
_dispatch_table_2_120:
.word 0xa8810680
.word 0xf85b83b1
.word 0xf9002234
.global _dispatch_table_0_120
_dispatch_table_0_120:
.word 0xb27f03e1
.word 0xf85b83b1
.word 0xf9002234
.word 0xaa1303e0
.word 0xa9bf7ffe
bl _LEPUS_NewObjectProto
.word 0xa8c17ffe
.word 0xf8008680
.word 0xf102081f
b.NE Label_579
.word 0x91001ed6
.word 0xf85b83b1
.word 0xf9002234
b __exception_handler_entry
Label_579:
.word 0x784052c9
.word 0xf85b83b1
.word 0xb24003e3
.word 0xf9002234
.word 0xaa0903e2
.word 0xaa1103e1
.word 0xaa1303e0
.word 0xa9bf7ffe
bl _get_var_ref
.word 0xa8c17ffe
.word 0xaa0003f9
cbnz x0, Label_577
.word 0x91001ed6
b __exception_handler_entry
Label_577:
.word 0xf85f8281
.word 0xb84012c8
.word 0xd2800443
.word 0xf8008680
.word 0xf85b83b1
.word 0xf9002234
.word 0xaa0803e2
.word 0xaa1303e0
.word 0xa9bf7ffe
bl _add_property_gc
.word 0xa8c17ffe
Label_578:
.word 0xd2800008
.word 0xaa1903e2
.word 0xaa0803e1
.word 0xa9bf7ffe
bl _prim_HeapObjStorePtr
.word 0xa8c17ffe
.word 0xb84012c8
.word 0xaa0803e1
.word 0xaa1303e0
.word 0xa9bf7ffe
bl _LEPUS_AtomToValue
.word 0xa8c17ffe
.word 0xd1002294
.word 0xf8008680
.word 0x38407ec8
.word 0x91000108
.word 0xf8685aa9
.word 0xd61f0120
.global _dispatch_table_1_121
_dispatch_table_1_121:
.word 0xf8008680
.word 0xf85b83b1
.word 0xf9002234
.word 0xb27f03e1
.word 0xf85b83b1
.word 0xf9002234
.word 0xaa1303e0
.word 0xa9bf7ffe
bl _LEPUS_NewObjectProto
.word 0xa8c17ffe
.word 0xf8008680
.word 0xf102081f
b.NE Label_581
.word 0x91001ed6
.word 0xf85b83b1
.word 0xf9002234
b __exception_handler_entry
Label_581:
.word 0x784052c9
.word 0xf8697b99
.word 0xf85f8281
.word 0xd2800443
.word 0xb84012c8
.word 0xf85b83b1
.word 0xf9002234
.word 0xaa0803e2
.word 0xaa1303e0
.word 0xa9bf7ffe
bl _add_property_gc
.word 0xa8c17ffe
Label_580:
.word 0xd2800008
.word 0xaa1903e2
.word 0xaa0803e1
.word 0xa9bf7ffe
bl _prim_HeapObjStorePtr
.word 0xa8c17ffe
.word 0xb84012c8
.word 0xaa0803e1
.word 0xaa1303e0
.word 0xa9bf7ffe
bl _LEPUS_AtomToValue
.word 0xa8c17ffe
.word 0xf8008680
.word 0x38407ec8
.word 0x91000108
.word 0xf8685aa9
.word 0xd61f0120
.global _dispatch_table_2_121
_dispatch_table_2_121:
.word 0xa8810680
.word 0xf85b83b1
.word 0xf9002234
.global _dispatch_table_0_121
_dispatch_table_0_121:
.word 0xb27f03e1
.word 0xf85b83b1
.word 0xf9002234
.word 0xaa1303e0
.word 0xa9bf7ffe
bl _LEPUS_NewObjectProto
.word 0xa8c17ffe
.word 0xf8008680
.word 0xf102081f
b.NE Label_583
.word 0x91001ed6
.word 0xf85b83b1
.word 0xf9002234
b __exception_handler_entry
Label_583:
.word 0x784052c9
.word 0xf8697b99
.word 0xf85f8281
.word 0xd2800443
.word 0xb84012c8
.word 0xf85b83b1
.word 0xf9002234
.word 0xaa0803e2
.word 0xaa1303e0
.word 0xa9bf7ffe
bl _add_property_gc
.word 0xa8c17ffe
Label_582:
.word 0xd2800008
.word 0xaa1903e2
.word 0xaa0803e1
.word 0xa9bf7ffe
bl _prim_HeapObjStorePtr
.word 0xa8c17ffe
.word 0xb84012c8
.word 0xaa0803e1
.word 0xaa1303e0
.word 0xa9bf7ffe
bl _LEPUS_AtomToValue
.word 0xa8c17ffe
.word 0xf8008680
.word 0x38407ec8
.word 0x91000108
.word 0xf8685aa9
.word 0xd61f0120
.global _dispatch_table_1_122
_dispatch_table_1_122:
.word 0xf8008680
.word 0xf85b83b1
.word 0xf9002234
.word 0xb84012c8
.word 0xf85b83b1
.word 0xf9002234
.word 0xaa1403e2
.word 0xaa0803e1
.word 0xaa1303e0
.word 0xa9bf7ffe
bl _JS_GetGlobalVarRef_GC
.word 0xa8c17ffe
.word 0x7100001f
b.GE Label_584
.word 0x910016d6
.word 0xf85b83b1
.word 0xf9002234
b __exception_handler_entry
Label_584:
.word 0x91004294
.word 0x38405ec8
.word 0x91000108
.word 0xf8685aa9
.word 0xd61f0120
.global _dispatch_table_2_122
_dispatch_table_2_122:
.word 0xa8810680
.word 0xf85b83b1
.word 0xf9002234
.global _dispatch_table_0_122
_dispatch_table_0_122:
.word 0xb84012c8
.word 0xf85b83b1
.word 0xf9002234
.word 0xaa1403e2
.word 0xaa0803e1
.word 0xaa1303e0
.word 0xa9bf7ffe
bl _JS_GetGlobalVarRef_GC
.word 0xa8c17ffe
.word 0x7100001f
b.GE Label_585
.word 0x910016d6
.word 0xf85b83b1
.word 0xf9002234
b __exception_handler_entry
Label_585:
.word 0x91004294
.word 0x38405ec8
.word 0x91000108
.word 0xf8685aa9
.word 0xd61f0120
.global _dispatch_table_2_123
_dispatch_table_2_123:
.word 0xf8008680
.word 0xaa0103e0
.word 0xf85b83b1
.word 0xf9002234
.word 0xf8008680
.word 0xf85b83b1
.word 0xf9002234
.word 0xaa0003e1
.word 0xaa1303e0
.word 0xa9bf7ffe
bl _prim_js_for_in_start_gc
.word 0xa8c17ffe
.word 0xd1002294
.word 0xf102081f
b.NE Label_586
.word 0x910006d6
.word 0xf85b83b1
.word 0xf9002234
b __exception_handler_entry
Label_586:
.word 0x38401ec8
.word 0x9103c908
.word 0xf8685aa9
.word 0xd61f0120
.global _dispatch_table_0_123
_dispatch_table_0_123:
.word 0xf85f8e80
.global _dispatch_table_1_123
_dispatch_table_1_123:
.word 0xf8008680
.word 0xf85b83b1
.word 0xf9002234
.word 0xaa0003e1
.word 0xaa1303e0
.word 0xa9bf7ffe
bl _prim_js_for_in_start_gc
.word 0xa8c17ffe
.word 0xd1002294
.word 0xf102081f
b.NE Label_587
.word 0x910006d6
.word 0xf85b83b1
.word 0xf9002234
b __exception_handler_entry
Label_587:
.word 0x38401ec8
.word 0x9103c908
.word 0xf8685aa9
.word 0xd61f0120
.global _dispatch_table_1_124
_dispatch_table_1_124:
.word 0xf8008680
.word 0xf85b83b1
.word 0xf9002234
.word 0xd2800002
.word 0xf85b83b1
.word 0xf9002234
.word 0xaa1403e1
.word 0xaa1303e0
.word 0xa9bf7ffe
bl _js_for_of_start_gc
.word 0xa8c17ffe
.word 0x7100001f
b.GE Label_588
.word 0x910006d6
.word 0xf85b83b1
.word 0xf9002234
b __exception_handler_entry
Label_588:
.word 0x91004294
.word 0xd2800848
.word 0xf81f8288
.word 0x38401ec8
.word 0x91000108
.word 0xf8685aa9
.word 0xd61f0120
.global _dispatch_table_2_124
_dispatch_table_2_124:
.word 0xa8810680
.word 0xf85b83b1
.word 0xf9002234
.global _dispatch_table_0_124
_dispatch_table_0_124:
.word 0xd2800002
.word 0xf85b83b1
.word 0xf9002234
.word 0xaa1403e1
.word 0xaa1303e0
.word 0xa9bf7ffe
bl _js_for_of_start_gc
.word 0xa8c17ffe
.word 0x7100001f
b.GE Label_589
.word 0x910006d6
.word 0xf85b83b1
.word 0xf9002234
b __exception_handler_entry
Label_589:
.word 0x91004294
.word 0xd2800848
.word 0xf81f8288
.word 0x38401ec8
.word 0x91000108
.word 0xf8685aa9
.word 0xd61f0120
.global _dispatch_table_1_125
_dispatch_table_1_125:
.word 0xf8008680
.word 0xf85b83b1
.word 0xf9002234
.word 0xb24003e2
.word 0xf85b83b1
.word 0xf9002234
.word 0xaa1403e1
.word 0xaa1303e0
.word 0xa9bf7ffe
bl _js_for_of_start_gc
.word 0xa8c17ffe
.word 0x7100001f
b.GE Label_590
.word 0x910006d6
.word 0xf85b83b1
.word 0xf9002234
b __exception_handler_entry
Label_590:
.word 0x91004294
.word 0xd2800848
.word 0xf81f8288
.word 0x38401ec8
.word 0x91000108
.word 0xf8685aa9
.word 0xd61f0120
.global _dispatch_table_2_125
_dispatch_table_2_125:
.word 0xa8810680
.word 0xf85b83b1
.word 0xf9002234
.global _dispatch_table_0_125
_dispatch_table_0_125:
.word 0xb24003e2
.word 0xf85b83b1
.word 0xf9002234
.word 0xaa1403e1
.word 0xaa1303e0
.word 0xa9bf7ffe
bl _js_for_of_start_gc
.word 0xa8c17ffe
.word 0x7100001f
b.GE Label_591
.word 0x910006d6
.word 0xf85b83b1
.word 0xf9002234
b __exception_handler_entry
Label_591:
.word 0x91004294
.word 0xd2800848
.word 0xf81f8288
.word 0x38401ec8
.word 0x91000108
.word 0xf8685aa9
.word 0xd61f0120
.global _dispatch_table_1_126
_dispatch_table_1_126:
.word 0xf8008680
.word 0xf85b83b1
.word 0xf9002234
.word 0xaa1403e8
.word 0xf85b83b1
.word 0xf9002234
.word 0xaa0803e1
.word 0xaa1303e0
.word 0xa9bf7ffe
bl _js_for_in_next_gc
.word 0xa8c17ffe
.word 0x7100001f
b.GE Label_592
.word 0x910006d6
.word 0xf85b83b1
.word 0xf9002234
b __exception_handler_entry
Label_592:
.word 0x91004294
.word 0x38401ec8
.word 0x91000108
.word 0xf8685aa9
.word 0xd61f0120
.global _dispatch_table_2_126
_dispatch_table_2_126:
.word 0xa8810680
.word 0xf85b83b1
.word 0xf9002234
.global _dispatch_table_0_126
_dispatch_table_0_126:
.word 0xaa1403e8
.word 0xf85b83b1
.word 0xf9002234
.word 0xaa0803e1
.word 0xaa1303e0
.word 0xa9bf7ffe
bl _js_for_in_next_gc
.word 0xa8c17ffe
.word 0x7100001f
b.GE Label_593
.word 0x910006d6
.word 0xf85b83b1
.word 0xf9002234
b __exception_handler_entry
Label_593:
.word 0x91004294
.word 0x38401ec8
.word 0x91000108
.word 0xf8685aa9
.word 0xd61f0120
.global _dispatch_table_1_127
_dispatch_table_1_127:
.word 0xf8008680
.word 0xf85b83b1
.word 0xf9002234
.word 0x394006c8
.word 0xb27efbe9
.word 0xcb080128
.word 0xf85b83b1
.word 0xf9002234
.word 0xaa0803e2
.word 0xaa1403e1
.word 0xaa1303e0
.word 0xa9bf7ffe
bl _js_for_of_next_gc
.word 0xa8c17ffe
.word 0x7100001f
b.GE Label_594
.word 0x91000ad6
.word 0xf85b83b1
.word 0xf9002234
b __exception_handler_entry
Label_594:
.word 0x91004294
.word 0x38402ec8
.word 0x91000108
.word 0xf8685aa9
.word 0xd61f0120
.global _dispatch_table_2_127
_dispatch_table_2_127:
.word 0xa8810680
.word 0xf85b83b1
.word 0xf9002234
.global _dispatch_table_0_127
_dispatch_table_0_127:
.word 0x394006c8
.word 0xb27efbe9
.word 0xcb080128
.word 0xf85b83b1
.word 0xf9002234
.word 0xaa0803e2
.word 0xaa1403e1
.word 0xaa1303e0
.word 0xa9bf7ffe
bl _js_for_of_next_gc
.word 0xa8c17ffe
.word 0x7100001f
b.GE Label_595
.word 0x91000ad6
.word 0xf85b83b1
.word 0xf9002234
b __exception_handler_entry
Label_595:
.word 0x91004294
.word 0x38402ec8
.word 0x91000108
.word 0xf8685aa9
.word 0xd61f0120
.global _dispatch_table_1_128
_dispatch_table_1_128:
.word 0xf8008680
.word 0xf85b83b1
.word 0xf9002234
.word 0xf85b83b1
.word 0xf9002234
.word 0xaa1403e1
.word 0xaa1303e0
.word 0xa9bf7ffe
bl _js_for_await_of_next_gc
.word 0xa8c17ffe
.word 0x7100001f
b.GE Label_596
.word 0x910006d6
.word 0xf85b83b1
.word 0xf9002234
b __exception_handler_entry
Label_596:
.word 0x91002294
.word 0x38401ec8
.word 0x91000108
.word 0xf8685aa9
.word 0xd61f0120
.global _dispatch_table_2_128
_dispatch_table_2_128:
.word 0xa8810680
.word 0xf85b83b1
.word 0xf9002234
.global _dispatch_table_0_128
_dispatch_table_0_128:
.word 0xf85b83b1
.word 0xf9002234
.word 0xaa1403e1
.word 0xaa1303e0
.word 0xa9bf7ffe
bl _js_for_await_of_next_gc
.word 0xa8c17ffe
.word 0x7100001f
b.GE Label_597
.word 0x910006d6
.word 0xf85b83b1
.word 0xf9002234
b __exception_handler_entry
Label_597:
.word 0x91002294
.word 0x38401ec8
.word 0x91000108
.word 0xf8685aa9
.word 0xd61f0120
.global _dispatch_table_1_129
_dispatch_table_1_129:
.word 0xf8008680
.word 0xf85b83b1
.word 0xf9002234
.word 0xf85b83b1
.word 0xf9002234
.word 0xaa1403e1
.word 0xaa1303e0
.word 0xa9bf7ffe
bl _js_iterator_get_value_done_gc
.word 0xa8c17ffe
.word 0x7100001f
b.GE Label_598
.word 0x910006d6
.word 0xf85b83b1
.word 0xf9002234
b __exception_handler_entry
Label_598:
.word 0x91002294
.word 0x38401ec8
.word 0x91000108
.word 0xf8685aa9
.word 0xd61f0120
.global _dispatch_table_2_129
_dispatch_table_2_129:
.word 0xa8810680
.word 0xf85b83b1
.word 0xf9002234
.global _dispatch_table_0_129
_dispatch_table_0_129:
.word 0xf85b83b1
.word 0xf9002234
.word 0xaa1403e1
.word 0xaa1303e0
.word 0xa9bf7ffe
bl _js_iterator_get_value_done_gc
.word 0xa8c17ffe
.word 0x7100001f
b.GE Label_599
.word 0x910006d6
.word 0xf85b83b1
.word 0xf9002234
b __exception_handler_entry
Label_599:
.word 0x91002294
.word 0x38401ec8
.word 0x91000108
.word 0xf8685aa9
.word 0xd61f0120
.global _dispatch_table_1_130
_dispatch_table_1_130:
.word 0xf8008680
.word 0xf85b83b1
.word 0xf9002234
.word 0xd1002294
.word 0xd1002294
.word 0xf85f8299
.word 0xd2800248
.word 0xeb08033f
b.EQ Label_600
.word 0xd2800002
.word 0xf85b83b1
.word 0xf9002234
.word 0xaa1903e1
.word 0xaa1303e0
.word 0xa9bf7ffe
bl _JS_IteratorClose
.word 0xa8c17ffe
.word 0x7100001f
b.GE Label_601
.word 0x910006d6
.word 0xf85b83b1
.word 0xf9002234
b __exception_handler_entry
Label_601:
Label_600:
.word 0xd1002294
.word 0x38401ec8
.word 0x91000108
.word 0xf8685aa9
.word 0xd61f0120
.global _dispatch_table_2_130
_dispatch_table_2_130:
.word 0xa8810680
.word 0xf85b83b1
.word 0xf9002234
.global _dispatch_table_0_130
_dispatch_table_0_130:
.word 0xd1002294
.word 0xd1002294
.word 0xf85f8299
.word 0xd2800248
.word 0xeb08033f
b.EQ Label_602
.word 0xd2800002
.word 0xf85b83b1
.word 0xf9002234
.word 0xaa1903e1
.word 0xaa1303e0
.word 0xa9bf7ffe
bl _JS_IteratorClose
.word 0xa8c17ffe
.word 0x7100001f
b.GE Label_603
.word 0x910006d6
.word 0xf85b83b1
.word 0xf9002234
b __exception_handler_entry
Label_603:
Label_602:
.word 0xd1002294
.word 0x38401ec8
.word 0x91000108
.word 0xf8685aa9
.word 0xd61f0120
.global _dispatch_table_1_131
_dispatch_table_1_131:
.word 0xf8008680
.word 0xf85b83b1
.word 0xf9002234
.word 0xf85803b9
.word 0xaa1903e2
.word 0xaa1403e1
.word 0xaa1303e0
.word 0xa9bf7ffe
bl _prim_js_iterator_close_return_gc
.word 0xa8c17ffe
.word 0xaa0003f4
.word 0x91006339
.word 0xeb19029f
b.GE Label_604
.word 0x910006d6
b __exception_handler_entry
Label_604:
.word 0x38401ec8
.word 0x91000108
.word 0xf8685aa9
.word 0xd61f0120
.global _dispatch_table_2_131
_dispatch_table_2_131:
.word 0xa8810680
.word 0xf85b83b1
.word 0xf9002234
.global _dispatch_table_0_131
_dispatch_table_0_131:
.word 0xf85803b9
.word 0xaa1903e2
.word 0xaa1403e1
.word 0xaa1303e0
.word 0xa9bf7ffe
bl _prim_js_iterator_close_return_gc
.word 0xa8c17ffe
.word 0xaa0003f4
.word 0x91006339
.word 0xeb19029f
b.GE Label_605
.word 0x910006d6
b __exception_handler_entry
Label_605:
.word 0x38401ec8
.word 0x91000108
.word 0xf8685aa9
.word 0xd61f0120
.global _dispatch_table_1_132
_dispatch_table_1_132:
.word 0xf8008680
.word 0xf85b83b1
.word 0xf9002234
.word 0xf85b83b1
.word 0xf9002234
.word 0xaa1403e1
.word 0xaa1303e0
.word 0xa9bf7ffe
bl _prim_js_async_iterator_close_gc
.word 0xa8c17ffe
.word 0x7100001f
b.GE Label_606
.word 0x910006d6
.word 0xf85b83b1
.word 0xf9002234
b __exception_handler_entry
Label_606:
.word 0xd1002294
.word 0x38401ec8
.word 0x91000108
.word 0xf8685aa9
.word 0xd61f0120
.global _dispatch_table_2_132
_dispatch_table_2_132:
.word 0xa8810680
.word 0xf85b83b1
.word 0xf9002234
.global _dispatch_table_0_132
_dispatch_table_0_132:
.word 0xf85b83b1
.word 0xf9002234
.word 0xaa1403e1
.word 0xaa1303e0
.word 0xa9bf7ffe
bl _prim_js_async_iterator_close_gc
.word 0xa8c17ffe
.word 0x7100001f
b.GE Label_607
.word 0x910006d6
.word 0xf85b83b1
.word 0xf9002234
b __exception_handler_entry
Label_607:
.word 0xd1002294
.word 0x38401ec8
.word 0x91000108
.word 0xf8685aa9
.word 0xd61f0120
.global _dispatch_table_1_133
_dispatch_table_1_133:
.word 0xf8008680
.word 0xf85b83b1
.word 0xf9002234
.word 0xf85e8281
.word 0xf85e0282
.word 0xb24003e3
.word 0xd1002284
.word 0xf85b83b1
.word 0xf9002234
.word 0xaa1303e0
.word 0xa9bf7ffe
bl _LEPUS_Call
.word 0xa8c17ffe
.word 0xf102081f
b.NE Label_608
.word 0x910006d6
.word 0xf85b83b1
.word 0xf9002234
b __exception_handler_entry
Label_608:
.word 0xf81f8280
.word 0x38401ec8
.word 0x91000108
.word 0xf8685aa9
.word 0xd61f0120
.global _dispatch_table_2_133
_dispatch_table_2_133:
.word 0xa8810680
.word 0xf85b83b1
.word 0xf9002234
.global _dispatch_table_0_133
_dispatch_table_0_133:
.word 0xf85e8281
.word 0xf85e0282
.word 0xb24003e3
.word 0xd1002284
.word 0xf85b83b1
.word 0xf9002234
.word 0xaa1303e0
.word 0xa9bf7ffe
bl _LEPUS_Call
.word 0xa8c17ffe
.word 0xf102081f
b.NE Label_609
.word 0x910006d6
.word 0xf85b83b1
.word 0xf9002234
b __exception_handler_entry
Label_609:
.word 0xf81f8280
.word 0x38401ec8
.word 0x91000108
.word 0xf8685aa9
.word 0xd61f0120
.global _dispatch_table_1_134
_dispatch_table_1_134:
.word 0xf8008680
.word 0xf85b83b1
.word 0xf9002234
.word 0x394006c2
.word 0xf85b83b1
.word 0xf9002234
.word 0xaa1403e1
.word 0xaa1303e0
.word 0xa9bf7ffe
bl _prim_js_async_iterator_get_gc
.word 0xa8c17ffe
.word 0x7100001f
b.GE Label_610
.word 0x91000ad6
.word 0xf85b83b1
.word 0xf9002234
b __exception_handler_entry
Label_610:
.word 0x91002294
.word 0x38402ec8
.word 0x91000108
.word 0xf8685aa9
.word 0xd61f0120
.global _dispatch_table_2_134
_dispatch_table_2_134:
.word 0xa8810680
.word 0xf85b83b1
.word 0xf9002234
.global _dispatch_table_0_134
_dispatch_table_0_134:
.word 0x394006c2
.word 0xf85b83b1
.word 0xf9002234
.word 0xaa1403e1
.word 0xaa1303e0
.word 0xa9bf7ffe
bl _prim_js_async_iterator_get_gc
.word 0xa8c17ffe
.word 0x7100001f
b.GE Label_611
.word 0x91000ad6
.word 0xf85b83b1
.word 0xf9002234
b __exception_handler_entry
Label_611:
.word 0x91002294
.word 0x38402ec8
.word 0x91000108
.word 0xf8685aa9
.word 0xd61f0120
.global _dispatch_table_1_135
_dispatch_table_1_135:
.word 0xf8008680
.word 0xf85b83b1
.word 0xf9002234
.word 0xd2800240
.word 0x910006d6
.word 0xf85b83b1
.word 0xf9001a36
.word 0xf9002234
.word 0xf9400228
.word 0xf9401269
.word 0xf9007928
.word 0xf94007be
.cfi_startproc
.word 0x910003bf
.word 0xa8c17bfd
.cfi_def_cfa x29,  16
.cfi_offset x29, -16
.cfi_offset x30, -8
.cfi_endproc
.word 0xd65f03c0
.word 0x38401ec8
.word 0x91000108
.word 0xf8685aa9
.word 0xd61f0120
.global _dispatch_table_2_135
_dispatch_table_2_135:
.word 0xa8810680
.word 0xf85b83b1
.word 0xf9002234
.global _dispatch_table_0_135
_dispatch_table_0_135:
.word 0xd2800240
.word 0x910006d6
.word 0xf85b83b1
.word 0xf9001a36
.word 0xf9002234
.word 0xf9400228
.word 0xf9401269
.word 0xf9007928
.word 0xf94007be
.cfi_startproc
.word 0x910003bf
.word 0xa8c17bfd
.cfi_def_cfa x29,  16
.cfi_offset x29, -16
.cfi_offset x30, -8
.cfi_endproc
.word 0xd65f03c0
.word 0x38401ec8
.word 0x91000108
.word 0xf8685aa9
.word 0xd61f0120
.global _dispatch_table_1_136
_dispatch_table_1_136:
.word 0xf8008680
.word 0xf85b83b1
.word 0xf9002234
.word 0xb24f3bf9
.word 0xb2400320
.word 0x910006d6
.word 0xf85b83b1
.word 0xf9001a36
.word 0xf9002234
.word 0xf9400228
.word 0xf9401269
.word 0xf9007928
.word 0xf94007be
.cfi_startproc
.word 0x910003bf
.word 0xa8c17bfd
.cfi_def_cfa x29,  16
.cfi_offset x29, -16
.cfi_offset x30, -8
.cfi_endproc
.word 0xd65f03c0
.word 0x38401ec8
.word 0x91000108
.word 0xf8685aa9
.word 0xd61f0120
.global _dispatch_table_2_136
_dispatch_table_2_136:
.word 0xa8810680
.word 0xf85b83b1
.word 0xf9002234
.global _dispatch_table_0_136
_dispatch_table_0_136:
.word 0xb24f3bf9
.word 0xb2400320
.word 0x910006d6
.word 0xf85b83b1
.word 0xf9001a36
.word 0xf9002234
.word 0xf9400228
.word 0xf9401269
.word 0xf9007928
.word 0xf94007be
.cfi_startproc
.word 0x910003bf
.word 0xa8c17bfd
.cfi_def_cfa x29,  16
.cfi_offset x29, -16
.cfi_offset x30, -8
.cfi_endproc
.word 0xd65f03c0
.word 0x38401ec8
.word 0x91000108
.word 0xf8685aa9
.word 0xd61f0120
.global _dispatch_table_1_137
_dispatch_table_1_137:
.word 0xf8008680
.word 0xf85b83b1
.word 0xf9002234
.word 0xb24f3bf9
.word 0xb27f0320
.word 0x910006d6
.word 0xf85b83b1
.word 0xf9001a36
.word 0xf9002234
.word 0xf9400228
.word 0xf9401269
.word 0xf9007928
.word 0xf94007be
.cfi_startproc
.word 0x910003bf
.word 0xa8c17bfd
.cfi_def_cfa x29,  16
.cfi_offset x29, -16
.cfi_offset x30, -8
.cfi_endproc
.word 0xd65f03c0
.word 0x38401ec8
.word 0x91000108
.word 0xf8685aa9
.word 0xd61f0120
.global _dispatch_table_2_137
_dispatch_table_2_137:
.word 0xa8810680
.word 0xf85b83b1
.word 0xf9002234
.global _dispatch_table_0_137
_dispatch_table_0_137:
.word 0xb24f3bf9
.word 0xb27f0320
.word 0x910006d6
.word 0xf85b83b1
.word 0xf9001a36
.word 0xf9002234
.word 0xf9400228
.word 0xf9401269
.word 0xf9007928
.word 0xf94007be
.cfi_startproc
.word 0x910003bf
.word 0xa8c17bfd
.cfi_def_cfa x29,  16
.cfi_offset x29, -16
.cfi_offset x30, -8
.cfi_endproc
.word 0xd65f03c0
.word 0x38401ec8
.word 0x91000108
.word 0xf8685aa9
.word 0xd61f0120
.global _dispatch_table_1_138
_dispatch_table_1_138:
.word 0xf8008680
.word 0xf85b83b1
.word 0xf9002234
.word 0xb24f3bf9
.word 0xb27f0320
.word 0x910006d6
.word 0xf85b83b1
.word 0xf9001a36
.word 0xf9002234
.word 0xf9400228
.word 0xf9401269
.word 0xf9007928
.word 0xf94007be
.cfi_startproc
.word 0x910003bf
.word 0xa8c17bfd
.cfi_def_cfa x29,  16
.cfi_offset x29, -16
.cfi_offset x30, -8
.cfi_endproc
.word 0xd65f03c0
.word 0x38401ec8
.word 0x91000108
.word 0xf8685aa9
.word 0xd61f0120
.global _dispatch_table_2_138
_dispatch_table_2_138:
.word 0xa8810680
.word 0xf85b83b1
.word 0xf9002234
.global _dispatch_table_0_138
_dispatch_table_0_138:
.word 0xb24f3bf9
.word 0xb27f0320
.word 0x910006d6
.word 0xf85b83b1
.word 0xf9001a36
.word 0xf9002234
.word 0xf9400228
.word 0xf9401269
.word 0xf9007928
.word 0xf94007be
.cfi_startproc
.word 0x910003bf
.word 0xa8c17bfd
.cfi_def_cfa x29,  16
.cfi_offset x29, -16
.cfi_offset x30, -8
.cfi_endproc
.word 0xd65f03c0
.word 0x38401ec8
.word 0x91000108
.word 0xf8685aa9
.word 0xd61f0120
.global _dispatch_table_1_139
_dispatch_table_1_139:
.word 0xf8008680
.word 0xf85b83b1
.word 0xf9002234
.word 0xb24f3be0
.word 0x910006d6
.word 0xf85b83b1
.word 0xf9001a36
.word 0xf9002234
.word 0xf9400228
.word 0xf9401269
.word 0xf9007928
.word 0xf94007be
.cfi_startproc
.word 0x910003bf
.word 0xa8c17bfd
.cfi_def_cfa x29,  16
.cfi_offset x29, -16
.cfi_offset x30, -8
.cfi_endproc
.word 0xd65f03c0
.word 0x38401ec8
.word 0x91000108
.word 0xf8685aa9
.word 0xd61f0120
.global _dispatch_table_2_139
_dispatch_table_2_139:
.word 0xa8810680
.word 0xf85b83b1
.word 0xf9002234
.global _dispatch_table_0_139
_dispatch_table_0_139:
.word 0xb24f3be0
.word 0x910006d6
.word 0xf85b83b1
.word 0xf9001a36
.word 0xf9002234
.word 0xf9400228
.word 0xf9401269
.word 0xf9007928
.word 0xf94007be
.cfi_startproc
.word 0x910003bf
.word 0xa8c17bfd
.cfi_def_cfa x29,  16
.cfi_offset x29, -16
.cfi_offset x30, -8
.cfi_endproc
.word 0xd65f03c0
.word 0x38401ec8
.word 0x91000108
.word 0xf8685aa9
.word 0xd61f0120
.global _dispatch_table_0_140
_dispatch_table_0_140:
.word 0xf85f8e80
.word 0xb2503fe9
.word 0xeb09001f
b.HS Label_614
.word 0xb24f3be9
.word 0xeb09001f
b.LO Label_612
.word 0x7100001f
b.EQ Label_614
.word 0x4b0003e0
.word 0xb24f3800
b Label_613
Label_612:
.word 0xf24f381f
b.EQ Label_614
.word 0xb24f03e9
.word 0xcb090000
.word 0x9e670000
.word 0x1e614000
.word 0x9e660000
.word 0x8b090000
b Label_613
Label_614:
.word 0xd2801182
.word 0xf8008680
.word 0xf85b83b1
.word 0xf9002234
.word 0xaa0003e1
.word 0xaa1303e0
.word 0xa9bf7ffe
bl _prim_js_unary_arith_slow_gc
.word 0xa8c17ffe
.word 0xd1002294
Label_613:
.word 0x38401ec8
.word 0x9103c908
.word 0xf8685aa9
.word 0xd61f0120
.global _dispatch_table_1_140
_dispatch_table_1_140:
.word 0xb2503fe9
.word 0xeb09001f
b.HS Label_618
.word 0xb24f3be9
.word 0xeb09001f
b.LO Label_616
.word 0x7100001f
b.EQ Label_618
.word 0x4b0003e0
.word 0xb24f3800
b Label_617
Label_616:
.word 0xf24f381f
b.EQ Label_618
.word 0xb24f03e9
.word 0xcb090000
.word 0x9e670000
.word 0x1e614000
.word 0x9e660000
.word 0x8b090000
b Label_617
Label_618:
.word 0xd2801182
.word 0xf8008680
.word 0xf85b83b1
.word 0xf9002234
.word 0xaa0003e1
.word 0xaa1303e0
.word 0xa9bf7ffe
bl _prim_js_unary_arith_slow_gc
.word 0xa8c17ffe
.word 0xd1002294
Label_617:
.word 0x38401ec8
.word 0x9103c908
.word 0xf8685aa9
.word 0xd61f0120
.global _dispatch_table_2_140
_dispatch_table_2_140:
.word 0xb2503fe9
.word 0xeb09003f
b.HS Label_622
.word 0xb24f3be9
.word 0xeb09003f
b.LO Label_620
.word 0x7100003f
b.EQ Label_622
.word 0x4b0103e1
.word 0xb24f3821
b Label_621
Label_620:
.word 0xf24f383f
b.EQ Label_622
.word 0xb24f03e9
.word 0xcb090021
.word 0x9e670020
.word 0x1e614000
.word 0x9e660001
.word 0x8b090021
b Label_621
Label_622:
.word 0xd2801182
.word 0xaa0003f9
.word 0xf8008680
.word 0xf8008681
.word 0xf85b83b1
.word 0xf9002234
.word 0xaa1303e0
.word 0xa9bf7ffe
bl _prim_js_unary_arith_slow_gc
.word 0xa8c17ffe
.word 0xd1002294
.word 0xd1002294
.word 0xaa0003e1
.word 0xaa1903e0
Label_621:
.word 0x38401ec8
.word 0x91079108
.word 0xf8685aa9
.word 0xd61f0120
.global _dispatch_table_2_141
_dispatch_table_2_141:
.word 0xf8008680
.word 0xaa0103e0
.word 0xf85b83b1
.word 0xf9002234
.word 0xb2503fe9
.word 0xeb09001f
b.HS Label_626
.word 0xb24f3be8
.word 0xb24f03e9
.word 0xeb08001f
b.LO Label_624
b Label_625
Label_624:
.word 0xea08001f
b.NE Label_625
Label_626:
.word 0xd28011a2
.word 0xf8008680
.word 0xf85b83b1
.word 0xf9002234
.word 0xaa0003e1
.word 0xaa1303e0
.word 0xa9bf7ffe
bl _prim_js_unary_arith_slow_gc
.word 0xa8c17ffe
.word 0xd1002294
.word 0xf102081f
b.NE Label_627
.word 0x910006d6
.word 0xf85b83b1
.word 0xf9002234
b __exception_handler_entry
Label_627:
Label_625:
.word 0x38401ec8
.word 0x9103c908
.word 0xf8685aa9
.word 0xd61f0120
.global _dispatch_table_0_141
_dispatch_table_0_141:
.word 0xf85f8e80
.global _dispatch_table_1_141
_dispatch_table_1_141:
.word 0xb2503fe9
.word 0xeb09001f
b.HS Label_630
.word 0xb24f3be8
.word 0xb24f03e9
.word 0xeb08001f
b.LO Label_628
b Label_629
Label_628:
.word 0xea08001f
b.NE Label_629
Label_630:
.word 0xd28011a2
.word 0xf8008680
.word 0xf85b83b1
.word 0xf9002234
.word 0xaa0003e1
.word 0xaa1303e0
.word 0xa9bf7ffe
bl _prim_js_unary_arith_slow_gc
.word 0xa8c17ffe
.word 0xd1002294
.word 0xf102081f
b.NE Label_631
.word 0x910006d6
.word 0xf85b83b1
.word 0xf9002234
b __exception_handler_entry
Label_631:
Label_629:
.word 0x38401ec8
.word 0x9103c908
.word 0xf8685aa9
.word 0xd61f0120
.global _dispatch_table_0_142
_dispatch_table_0_142:
.word 0xf85f8e80
.word 0xb2503fe9
.word 0xeb09001f
b.HS Label_632
.word 0xb24f3be9
.word 0xeb09001f
b.LO Label_633
.word 0x71000400
b.VS Label_634
.word 0xaa090000
.word 0x38401ec8
.word 0x9103c908
.word 0xf8685aa9
.word 0xd61f0120
Label_634:
.word 0x9e620000
.word 0x9e660000
.word 0xb24f03e9
.word 0x8b090000
.word 0x38401ec8
.word 0x9103c908
.word 0xf8685aa9
.word 0xd61f0120
Label_633:
.word 0xea090008
cbz x8, Label_632
.word 0xb24f03e8
.word 0xcb080000
.word 0x9e670000
.word 0x1e6e1001
.word 0x1e613800
.word 0x1e780006
.word 0x1e6200c2
.word 0x9e660004
.word 0x9e660045
.word 0xeb05009f
b.NE Label_635
.word 0xb24f38c0
b Label_636
Label_635:
.word 0x9e660000
.word 0xb24f03e6
.word 0x8b060000
Label_636:
.word 0x38401ec8
.word 0x9103c908
.word 0xf8685aa9
.word 0xd61f0120
Label_632:
.word 0xd28011c2
.word 0xf8008680
.word 0xf85b83b1
.word 0xf9002234
.word 0xaa0003e1
.word 0xaa1303e0
.word 0xa9bf7ffe
bl _prim_js_unary_arith_slow_gc
.word 0xa8c17ffe
.word 0xd1002294
.word 0xf102081f
b.NE Label_637
.word 0x910006d6
.word 0xf85b83b1
.word 0xf9002234
b __exception_handler_entry
Label_637:
.word 0x38401ec8
.word 0x9103c908
.word 0xf8685aa9
.word 0xd61f0120
.global _dispatch_table_1_142
_dispatch_table_1_142:
.word 0xb2503fe9
.word 0xeb09001f
b.HS Label_638
.word 0xb24f3be9
.word 0xeb09001f
b.LO Label_639
.word 0x71000400
b.VS Label_640
.word 0xaa090000
.word 0x38401ec8
.word 0x9103c908
.word 0xf8685aa9
.word 0xd61f0120
Label_640:
.word 0x9e620000
.word 0x9e660000
.word 0xb24f03e9
.word 0x8b090000
.word 0x38401ec8
.word 0x9103c908
.word 0xf8685aa9
.word 0xd61f0120
Label_639:
.word 0xea090008
cbz x8, Label_638
.word 0xb24f03e8
.word 0xcb080000
.word 0x9e670000
.word 0x1e6e1001
.word 0x1e613800
.word 0x1e780006
.word 0x1e6200c2
.word 0x9e660004
.word 0x9e660045
.word 0xeb05009f
b.NE Label_641
.word 0xb24f38c0
b Label_642
Label_641:
.word 0x9e660000
.word 0xb24f03e6
.word 0x8b060000
Label_642:
.word 0x38401ec8
.word 0x9103c908
.word 0xf8685aa9
.word 0xd61f0120
Label_638:
.word 0xd28011c2
.word 0xf8008680
.word 0xf85b83b1
.word 0xf9002234
.word 0xaa0003e1
.word 0xaa1303e0
.word 0xa9bf7ffe
bl _prim_js_unary_arith_slow_gc
.word 0xa8c17ffe
.word 0xd1002294
.word 0xf102081f
b.NE Label_643
.word 0x910006d6
.word 0xf85b83b1
.word 0xf9002234
b __exception_handler_entry
Label_643:
.word 0x38401ec8
.word 0x9103c908
.word 0xf8685aa9
.word 0xd61f0120
.global _dispatch_table_2_142
_dispatch_table_2_142:
.word 0xb2503fe9
.word 0xeb09003f
b.HS Label_644
.word 0xb24f3be9
.word 0xeb09003f
b.LO Label_645
.word 0x71000421
b.VS Label_647
.word 0xaa090021
b Label_646
Label_647:
.word 0x9e620020
.word 0x9e660001
.word 0xb24f03e9
.word 0x8b090021
b Label_646
Label_645:
.word 0xea090028
cbz x8, Label_644
.word 0xb24f03e8
.word 0xcb080021
.word 0x9e670020
.word 0x1e6e1001
.word 0x1e613800
.word 0x1e780006
.word 0x1e6200c2
.word 0x9e660004
.word 0x9e660045
.word 0xeb05009f
b.NE Label_648
.word 0xb24f38c1
b Label_649
Label_648:
.word 0x9e660001
.word 0xb24f03e6
.word 0x8b060021
Label_649:
b Label_646
Label_644:
.word 0xd28011c2
.word 0xaa0003f9
.word 0xf8008680
.word 0xf8008681
.word 0xf85b83b1
.word 0xf9002234
.word 0xaa1303e0
.word 0xa9bf7ffe
bl _prim_js_unary_arith_slow_gc
.word 0xa8c17ffe
.word 0xd1002294
.word 0xd1002294
.word 0xf102081f
b.NE Label_651
.word 0xf8008699
.word 0x910006d6
.word 0xf85b83b1
.word 0xf9002234
b __exception_handler_entry
Label_651:
.word 0xaa0003e1
.word 0xaa1903e0
.word 0x38401ec8
.word 0x91079108
.word 0xf8685aa9
.word 0xd61f0120
Label_646:
.word 0x38401ec8
.word 0x91079108
.word 0xf8685aa9
.word 0xd61f0120
.global _dispatch_table_0_143
_dispatch_table_0_143:
.word 0xf85f8e80
.word 0xb2503fe9
.word 0xeb09001f
b.HS Label_653
.word 0xb24f3be9
.word 0xeb09001f
b.LO Label_652
.word 0x31000400
b.VS Label_655
.word 0xaa090000
b Label_654
Label_655:
.word 0x9e620000
.word 0x9e660000
.word 0xb24f03e9
.word 0x8b090000
b Label_654
Label_652:
.word 0xea090008
cbz x8, Label_653
.word 0xb24f03e8
.word 0xcb080000
.word 0x9e670000
.word 0x1e6e1001
.word 0x1e612800
.word 0x1e780006
.word 0x1e6200c2
.word 0x9e660004
.word 0x9e660045
.word 0xeb05009f
b.NE Label_656
.word 0xb24f38c0
b Label_657
Label_656:
.word 0x9e660000
.word 0xb24f03e6
.word 0x8b060000
Label_657:
b Label_654
Label_653:
.word 0xd28011e2
.word 0xf8008680
.word 0xf85b83b1
.word 0xf9002234
.word 0xaa0003e1
.word 0xaa1303e0
.word 0xa9bf7ffe
bl _prim_js_unary_arith_slow_gc
.word 0xa8c17ffe
.word 0xd1002294
.word 0xf102081f
b.NE Label_658
.word 0x910006d6
.word 0xf85b83b1
.word 0xf9002234
b __exception_handler_entry
Label_658:
.word 0x38401ec8
.word 0x9103c908
.word 0xf8685aa9
.word 0xd61f0120
Label_654:
.word 0x38401ec8
.word 0x9103c908
.word 0xf8685aa9
.word 0xd61f0120
.global _dispatch_table_1_143
_dispatch_table_1_143:
.word 0xb2503fe9
.word 0xeb09001f
b.HS Label_660
.word 0xb24f3be9
.word 0xeb09001f
b.LO Label_659
.word 0x31000400
b.VS Label_662
.word 0xaa090000
b Label_661
Label_662:
.word 0x9e620000
.word 0x9e660000
.word 0xb24f03e9
.word 0x8b090000
b Label_661
Label_659:
.word 0xea090008
cbz x8, Label_660
.word 0xb24f03e8
.word 0xcb080000
.word 0x9e670000
.word 0x1e6e1001
.word 0x1e612800
.word 0x1e780006
.word 0x1e6200c2
.word 0x9e660004
.word 0x9e660045
.word 0xeb05009f
b.NE Label_663
.word 0xb24f38c0
b Label_664
Label_663:
.word 0x9e660000
.word 0xb24f03e6
.word 0x8b060000
Label_664:
b Label_661
Label_660:
.word 0xd28011e2
.word 0xf8008680
.word 0xf85b83b1
.word 0xf9002234
.word 0xaa0003e1
.word 0xaa1303e0
.word 0xa9bf7ffe
bl _prim_js_unary_arith_slow_gc
.word 0xa8c17ffe
.word 0xd1002294
.word 0xf102081f
b.NE Label_665
.word 0x910006d6
.word 0xf85b83b1
.word 0xf9002234
b __exception_handler_entry
Label_665:
.word 0x38401ec8
.word 0x9103c908
.word 0xf8685aa9
.word 0xd61f0120
Label_661:
.word 0x38401ec8
.word 0x9103c908
.word 0xf8685aa9
.word 0xd61f0120
.global _dispatch_table_2_143
_dispatch_table_2_143:
.word 0xb2503fe9
.word 0xeb09003f
b.HS Label_667
.word 0xb24f3be9
.word 0xeb09003f
b.LO Label_666
.word 0x31000421
b.VS Label_669
.word 0xaa090021
b Label_668
Label_669:
.word 0x9e620020
.word 0x9e660001
.word 0xb24f03e9
.word 0x8b090021
b Label_668
Label_666:
.word 0xea090028
cbz x8, Label_667
.word 0xb24f03e8
.word 0xcb080021
.word 0x9e670020
.word 0x1e6e1001
.word 0x1e612800
.word 0x1e780006
.word 0x1e6200c2
.word 0x9e660004
.word 0x9e660045
.word 0xeb05009f
b.NE Label_670
.word 0xb24f38c1
b Label_671
Label_670:
.word 0x9e660001
.word 0xb24f03e6
.word 0x8b060021
Label_671:
b Label_668
Label_667:
.word 0xd28011e2
.word 0xaa0003f9
.word 0xf8008680
.word 0xf8008681
.word 0xf85b83b1
.word 0xf9002234
.word 0xaa1303e0
.word 0xa9bf7ffe
bl _prim_js_unary_arith_slow_gc
.word 0xa8c17ffe
.word 0xd1002294
.word 0xd1002294
.word 0xf102081f
b.NE Label_673
.word 0xf8008699
.word 0x910006d6
.word 0xf85b83b1
.word 0xf9002234
b __exception_handler_entry
Label_673:
.word 0xaa0003e1
.word 0xaa1903e0
.word 0x38401ec8
.word 0x91079108
.word 0xf8685aa9
.word 0xd61f0120
Label_668:
.word 0x38401ec8
.word 0x91079108
.word 0xf8685aa9
.word 0xd61f0120
.global _dispatch_table_2_144
_dispatch_table_2_144:
.word 0xf8008680
.word 0xaa0103e0
.word 0xf85b83b1
.word 0xf9002234
.word 0xb2503fe9
.word 0xeb09001f
b.HS Label_676
.word 0xb24f3be9
.word 0xeb09001f
b.LO Label_674
.word 0x71000401
b.VS Label_677
.word 0xaa090021
b Label_675
Label_677:
.word 0x9e620020
.word 0x9e660001
.word 0xb24f03e9
.word 0x8b090021
b Label_675
Label_674:
.word 0xea090008
cbz x8, Label_676
.word 0xb24f03e8
.word 0xcb080001
.word 0x9e670020
.word 0x1e6e1001
.word 0x1e613800
.word 0x1e780006
.word 0x1e6200c2
.word 0x9e660004
.word 0x9e660045
.word 0xeb05009f
b.NE Label_678
.word 0xb24f38c1
b Label_679
Label_678:
.word 0x9e660001
.word 0xb24f03e6
.word 0x8b060021
Label_679:
b Label_675
Label_676:
.word 0xf8008680
.word 0xd2801202
.word 0xf85b83b1
.word 0xf9002234
.word 0xaa1403e1
.word 0xaa1303e0
.word 0xa9bf7ffe
bl _js_post_inc_slow_gc
.word 0xa8c17ffe
.word 0x7100001f
b.GE Label_680
.word 0x910006d6
.word 0xf85b83b1
.word 0xf9002234
b __exception_handler_entry
Label_680:
.word 0x91002294
.word 0x38401ec8
.word 0x91000108
.word 0xf8685aa9
.word 0xd61f0120
Label_675:
.word 0x38401ec8
.word 0x91079108
.word 0xf8685aa9
.word 0xd61f0120
.global _dispatch_table_0_144
_dispatch_table_0_144:
.word 0xf85f8e80
.global _dispatch_table_1_144
_dispatch_table_1_144:
.word 0xb2503fe9
.word 0xeb09001f
b.HS Label_683
.word 0xb24f3be9
.word 0xeb09001f
b.LO Label_681
.word 0x71000401
b.VS Label_684
.word 0xaa090021
b Label_682
Label_684:
.word 0x9e620020
.word 0x9e660001
.word 0xb24f03e9
.word 0x8b090021
b Label_682
Label_681:
.word 0xea090008
cbz x8, Label_683
.word 0xb24f03e8
.word 0xcb080001
.word 0x9e670020
.word 0x1e6e1001
.word 0x1e613800
.word 0x1e780006
.word 0x1e6200c2
.word 0x9e660004
.word 0x9e660045
.word 0xeb05009f
b.NE Label_685
.word 0xb24f38c1
b Label_686
Label_685:
.word 0x9e660001
.word 0xb24f03e6
.word 0x8b060021
Label_686:
b Label_682
Label_683:
.word 0xf8008680
.word 0xd2801202
.word 0xf85b83b1
.word 0xf9002234
.word 0xaa1403e1
.word 0xaa1303e0
.word 0xa9bf7ffe
bl _js_post_inc_slow_gc
.word 0xa8c17ffe
.word 0x7100001f
b.GE Label_687
.word 0x910006d6
.word 0xf85b83b1
.word 0xf9002234
b __exception_handler_entry
Label_687:
.word 0x91002294
.word 0x38401ec8
.word 0x91000108
.word 0xf8685aa9
.word 0xd61f0120
Label_682:
.word 0x38401ec8
.word 0x91079108
.word 0xf8685aa9
.word 0xd61f0120
.global _dispatch_table_2_145
_dispatch_table_2_145:
.word 0xf8008680
.word 0xaa0103e0
.word 0xf85b83b1
.word 0xf9002234
.word 0xb2503fe9
.word 0xeb09001f
b.HS Label_689
.word 0xb24f3be9
.word 0xeb09001f
b.LO Label_688
.word 0x31000401
b.VS Label_690
.word 0xb24f3821
.word 0x38401ec8
.word 0x91079108
.word 0xf8685aa9
.word 0xd61f0120
Label_690:
.word 0x9e620020
.word 0x9e660001
.word 0xb24f03e9
.word 0x8b090021
.word 0x38401ec8
.word 0x91079108
.word 0xf8685aa9
.word 0xd61f0120
Label_688:
.word 0xf24f3808
cbz x8, Label_689
.word 0xb24f03e8
.word 0xcb080001
.word 0x9e670020
.word 0x1e6e1001
.word 0x1e612800
.word 0x1e780006
.word 0x1e6200c2
.word 0x9e660004
.word 0x9e660045
.word 0xeb05009f
b.NE Label_691
.word 0xb24f38c1
b Label_692
Label_691:
.word 0x9e660001
.word 0xb24f03e6
.word 0x8b060021
Label_692:
.word 0x38401ec8
.word 0x91079108
.word 0xf8685aa9
.word 0xd61f0120
Label_689:
.word 0xf8008680
.word 0xd2801222
.word 0xf85b83b1
.word 0xf9002234
.word 0xaa1403e1
.word 0xaa1303e0
.word 0xa9bf7ffe
bl _js_post_inc_slow_gc
.word 0xa8c17ffe
.word 0x7100001f
b.GE Label_693
.word 0x910006d6
.word 0xf85b83b1
.word 0xf9002234
b __exception_handler_entry
Label_693:
.word 0x91002294
.word 0x38401ec8
.word 0x91000108
.word 0xf8685aa9
.word 0xd61f0120
.word 0x38401ec8
.word 0x91079108
.word 0xf8685aa9
.word 0xd61f0120
.global _dispatch_table_0_145
_dispatch_table_0_145:
.word 0xf85f8e80
.global _dispatch_table_1_145
_dispatch_table_1_145:
.word 0xb2503fe9
.word 0xeb09001f
b.HS Label_695
.word 0xb24f3be9
.word 0xeb09001f
b.LO Label_694
.word 0x31000401
b.VS Label_696
.word 0xb24f3821
.word 0x38401ec8
.word 0x91079108
.word 0xf8685aa9
.word 0xd61f0120
Label_696:
.word 0x9e620020
.word 0x9e660001
.word 0xb24f03e9
.word 0x8b090021
.word 0x38401ec8
.word 0x91079108
.word 0xf8685aa9
.word 0xd61f0120
Label_694:
.word 0xf24f3808
cbz x8, Label_695
.word 0xb24f03e8
.word 0xcb080001
.word 0x9e670020
.word 0x1e6e1001
.word 0x1e612800
.word 0x1e780006
.word 0x1e6200c2
.word 0x9e660004
.word 0x9e660045
.word 0xeb05009f
b.NE Label_697
.word 0xb24f38c1
b Label_698
Label_697:
.word 0x9e660001
.word 0xb24f03e6
.word 0x8b060021
Label_698:
.word 0x38401ec8
.word 0x91079108
.word 0xf8685aa9
.word 0xd61f0120
Label_695:
.word 0xf8008680
.word 0xd2801222
.word 0xf85b83b1
.word 0xf9002234
.word 0xaa1403e1
.word 0xaa1303e0
.word 0xa9bf7ffe
bl _js_post_inc_slow_gc
.word 0xa8c17ffe
.word 0x7100001f
b.GE Label_699
.word 0x910006d6
.word 0xf85b83b1
.word 0xf9002234
b __exception_handler_entry
Label_699:
.word 0x91002294
.word 0x38401ec8
.word 0x91000108
.word 0xf8685aa9
.word 0xd61f0120
.word 0x38401ec8
.word 0x91079108
.word 0xf8685aa9
.word 0xd61f0120
.global _dispatch_table_0_146
_dispatch_table_0_146:
.word 0x394006c8
.word 0x8b080f08
.word 0xf9400107
.word 0xb2503fe9
.word 0xeb0900ff
b.HS Label_701
.word 0xb24f3be9
.word 0xeb0900ff
b.LO Label_700
.word 0x710004e7
b.VS Label_703
.word 0xaa0900e7
.word 0xf9000107
b Label_702
Label_703:
.word 0x9e6200e0
.word 0x9e660007
.word 0xb24f03e9
.word 0x8b0900e7
.word 0xf9000107
b Label_702
Label_700:
.word 0xea07013f
b.EQ Label_701
.word 0xb24f03e9
.word 0xcb0900e7
.word 0x9e6700e0
.word 0x1e6e1001
.word 0x1e613800
.word 0x1e780006
.word 0x1e6200c2
.word 0x9e660004
.word 0x9e660045
.word 0xeb05009f
b.NE Label_704
.word 0xb24f38c7
b Label_705
Label_704:
.word 0x9e660007
.word 0xb24f03e6
.word 0x8b0600e7
Label_705:
.word 0xf9000107
b Label_702
Label_701:
.word 0xd28011c2
.word 0xaa0703f9
.word 0xf85b83b1
.word 0xf9002234
.word 0xf8008688
.word 0xaa1903e1
.word 0xaa1303e0
.word 0xa9bf7ffe
bl _prim_js_unary_arith_slow_gc
.word 0xa8c17ffe
.word 0xf102081f
b.NE Label_707
.word 0xf85f8e88
.word 0x91000ad6
.word 0xf85b83b1
.word 0xf9002234
b __exception_handler_entry
Label_707:
.word 0xaa1903e1
.word 0xaa0003f9
.word 0xf85f8e88
.word 0xf9000119
.word 0x38402ec8
.word 0x91000108
.word 0xf8685aa9
.word 0xd61f0120
Label_702:
.word 0x38402ec8
.word 0x91000108
.word 0xf8685aa9
.word 0xd61f0120
.global _dispatch_table_1_146
_dispatch_table_1_146:
.word 0x394006c8
.word 0x8b080f08
.word 0xf9400107
.word 0xb2503fe9
.word 0xeb0900ff
b.HS Label_709
.word 0xb24f3be9
.word 0xeb0900ff
b.LO Label_708
.word 0x710004e7
b.VS Label_711
.word 0xaa0900e7
.word 0xf9000107
b Label_710
Label_711:
.word 0x9e6200e0
.word 0x9e660007
.word 0xb24f03e9
.word 0x8b0900e7
.word 0xf9000107
b Label_710
Label_708:
.word 0xea07013f
b.EQ Label_709
.word 0xb24f03e9
.word 0xcb0900e7
.word 0x9e6700e0
.word 0x1e6e1001
.word 0x1e613800
.word 0x1e780006
.word 0x1e6200c2
.word 0x9e660004
.word 0x9e660045
.word 0xeb05009f
b.NE Label_712
.word 0xb24f38c7
b Label_713
Label_712:
.word 0x9e660007
.word 0xb24f03e6
.word 0x8b0600e7
Label_713:
.word 0xf9000107
b Label_710
Label_709:
.word 0xd28011c2
.word 0xaa0703f9
.word 0xf8008680
.word 0xf85b83b1
.word 0xf9002234
.word 0xf8008688
.word 0xaa1903e1
.word 0xaa1303e0
.word 0xa9bf7ffe
bl _prim_js_unary_arith_slow_gc
.word 0xa8c17ffe
.word 0xf102081f
b.NE Label_715
.word 0xf85f8e88
.word 0x91000ad6
.word 0xf85b83b1
.word 0xf9002234
b __exception_handler_entry
Label_715:
.word 0xaa1903e1
.word 0xaa0003f9
.word 0xf85f8e88
.word 0xf9000119
.word 0xf85f8e80
.word 0x38402ec8
.word 0x9103c908
.word 0xf8685aa9
.word 0xd61f0120
Label_710:
.word 0x38402ec8
.word 0x9103c908
.word 0xf8685aa9
.word 0xd61f0120
.global _dispatch_table_2_146
_dispatch_table_2_146:
.word 0x394006c8
.word 0x8b080f08
.word 0xf9400107
.word 0xb2503fe9
.word 0xeb0900ff
b.HS Label_717
.word 0xb24f3be9
.word 0xeb0900ff
b.LO Label_716
.word 0x710004e7
b.VS Label_719
.word 0xaa0900e7
.word 0xf9000107
b Label_718
Label_719:
.word 0x9e6200e0
.word 0x9e660007
.word 0xb24f03e9
.word 0x8b0900e7
.word 0xf9000107
b Label_718
Label_716:
.word 0xea07013f
b.EQ Label_717
.word 0xb24f03e9
.word 0xcb0900e7
.word 0x9e6700e0
.word 0x1e6e1001
.word 0x1e613800
.word 0x1e780006
.word 0x1e6200c2
.word 0x9e660004
.word 0x9e660045
.word 0xeb05009f
b.NE Label_720
.word 0xb24f38c7
b Label_721
Label_720:
.word 0x9e660007
.word 0xb24f03e6
.word 0x8b0600e7
Label_721:
.word 0xf9000107
b Label_718
Label_717:
.word 0xd28011c2
.word 0xaa0703f9
.word 0xf8008680
.word 0xf8008681
.word 0xf85b83b1
.word 0xf9002234
.word 0xf8008688
.word 0xaa1903e1
.word 0xaa1303e0
.word 0xa9bf7ffe
bl _prim_js_unary_arith_slow_gc
.word 0xa8c17ffe
.word 0xf102081f
b.NE Label_723
.word 0xf85f8e88
.word 0x91000ad6
.word 0xf85b83b1
.word 0xf9002234
b __exception_handler_entry
Label_723:
.word 0xaa1903e1
.word 0xaa0003f9
.word 0xf85f8e88
.word 0xf9000119
.word 0xf85f8e81
.word 0xf85f8e80
.word 0x38402ec8
.word 0x91079108
.word 0xf8685aa9
.word 0xd61f0120
Label_718:
.word 0x38402ec8
.word 0x91079108
.word 0xf8685aa9
.word 0xd61f0120
.global _dispatch_table_0_147
_dispatch_table_0_147:
.word 0x394006c8
.word 0x8b080f08
.word 0xf9400107
.word 0xb2503fe9
.word 0xeb0900ff
b.HS Label_725
.word 0xb24f3be9
.word 0xeb0900ff
b.LO Label_724
.word 0x310004e7
b.VS Label_727
.word 0xaa0900e7
.word 0xf9000107
b Label_726
Label_727:
.word 0x9e6200e0
.word 0x9e660007
.word 0xb24f03e9
.word 0x8b0900e7
.word 0xf9000107
b Label_726
Label_724:
.word 0xea07013f
b.EQ Label_725
.word 0xb24f03e9
.word 0xcb0900e7
.word 0x9e6700e0
.word 0x1e6e1001
.word 0x1e612800
.word 0x1e780006
.word 0x1e6200c2
.word 0x9e660004
.word 0x9e660045
.word 0xeb05009f
b.NE Label_728
.word 0xb24f38c7
b Label_729
Label_728:
.word 0x9e660007
.word 0xb24f03e6
.word 0x8b0600e7
Label_729:
.word 0xf9000107
b Label_726
Label_725:
.word 0xd2801262
.word 0xaa0703f9
.word 0xf85b83b1
.word 0xf9002234
.word 0xf8008688
.word 0xaa1903e1
.word 0xaa1303e0
.word 0xa9bf7ffe
bl _prim_js_unary_arith_slow_gc
.word 0xa8c17ffe
.word 0xf102081f
b.NE Label_731
.word 0xf85f8e88
.word 0x91000ad6
.word 0xf85b83b1
.word 0xf9002234
b __exception_handler_entry
Label_731:
.word 0xaa1903e1
.word 0xaa0003f9
.word 0xf85f8e88
.word 0xf9000119
.word 0x38402ec8
.word 0x91000108
.word 0xf8685aa9
.word 0xd61f0120
Label_726:
.word 0x38402ec8
.word 0x91000108
.word 0xf8685aa9
.word 0xd61f0120
.global _dispatch_table_1_147
_dispatch_table_1_147:
.word 0x394006c8
.word 0x8b080f08
.word 0xf9400107
.word 0xb2503fe9
.word 0xeb0900ff
b.HS Label_733
.word 0xb24f3be9
.word 0xeb0900ff
b.LO Label_732
.word 0x310004e7
b.VS Label_735
.word 0xaa0900e7
.word 0xf9000107
b Label_734
Label_735:
.word 0x9e6200e0
.word 0x9e660007
.word 0xb24f03e9
.word 0x8b0900e7
.word 0xf9000107
b Label_734
Label_732:
.word 0xea07013f
b.EQ Label_733
.word 0xb24f03e9
.word 0xcb0900e7
.word 0x9e6700e0
.word 0x1e6e1001
.word 0x1e612800
.word 0x1e780006
.word 0x1e6200c2
.word 0x9e660004
.word 0x9e660045
.word 0xeb05009f
b.NE Label_736
.word 0xb24f38c7
b Label_737
Label_736:
.word 0x9e660007
.word 0xb24f03e6
.word 0x8b0600e7
Label_737:
.word 0xf9000107
b Label_734
Label_733:
.word 0xd2801262
.word 0xaa0703f9
.word 0xf8008680
.word 0xf85b83b1
.word 0xf9002234
.word 0xf8008688
.word 0xaa1903e1
.word 0xaa1303e0
.word 0xa9bf7ffe
bl _prim_js_unary_arith_slow_gc
.word 0xa8c17ffe
.word 0xf102081f
b.NE Label_739
.word 0xf85f8e88
.word 0x91000ad6
.word 0xf85b83b1
.word 0xf9002234
b __exception_handler_entry
Label_739:
.word 0xaa1903e1
.word 0xaa0003f9
.word 0xf85f8e88
.word 0xf9000119
.word 0xf85f8e80
.word 0x38402ec8
.word 0x9103c908
.word 0xf8685aa9
.word 0xd61f0120
Label_734:
.word 0x38402ec8
.word 0x9103c908
.word 0xf8685aa9
.word 0xd61f0120
.global _dispatch_table_2_147
_dispatch_table_2_147:
.word 0x394006c8
.word 0x8b080f08
.word 0xf9400107
.word 0xb2503fe9
.word 0xeb0900ff
b.HS Label_741
.word 0xb24f3be9
.word 0xeb0900ff
b.LO Label_740
.word 0x310004e7
b.VS Label_743
.word 0xaa0900e7
.word 0xf9000107
b Label_742
Label_743:
.word 0x9e6200e0
.word 0x9e660007
.word 0xb24f03e9
.word 0x8b0900e7
.word 0xf9000107
b Label_742
Label_740:
.word 0xea07013f
b.EQ Label_741
.word 0xb24f03e9
.word 0xcb0900e7
.word 0x9e6700e0
.word 0x1e6e1001
.word 0x1e612800
.word 0x1e780006
.word 0x1e6200c2
.word 0x9e660004
.word 0x9e660045
.word 0xeb05009f
b.NE Label_744
.word 0xb24f38c7
b Label_745
Label_744:
.word 0x9e660007
.word 0xb24f03e6
.word 0x8b0600e7
Label_745:
.word 0xf9000107
b Label_742
Label_741:
.word 0xd2801262
.word 0xaa0703f9
.word 0xf8008680
.word 0xf8008681
.word 0xf85b83b1
.word 0xf9002234
.word 0xf8008688
.word 0xaa1903e1
.word 0xaa1303e0
.word 0xa9bf7ffe
bl _prim_js_unary_arith_slow_gc
.word 0xa8c17ffe
.word 0xf102081f
b.NE Label_747
.word 0xf85f8e88
.word 0x91000ad6
.word 0xf85b83b1
.word 0xf9002234
b __exception_handler_entry
Label_747:
.word 0xaa1903e1
.word 0xaa0003f9
.word 0xf85f8e88
.word 0xf9000119
.word 0xf85f8e81
.word 0xf85f8e80
.word 0x38402ec8
.word 0x91079108
.word 0xf8685aa9
.word 0xd61f0120
Label_742:
.word 0x38402ec8
.word 0x91079108
.word 0xf8685aa9
.word 0xd61f0120
.global _dispatch_table_2_148
_dispatch_table_2_148:
.word 0xf8008680
.word 0xaa0103e0
.word 0xf85b83b1
.word 0xf9002234
.word 0x394006c8
.word 0x8b080f08
.word 0xf9400101
.word 0xf2503c19
.word 0xb24f3be9
.word 0xeb090339
cbnz x25, Label_748
.word 0xf2503c39
.word 0xeb090339
cbnz x25, Label_748
.word 0x93407c00
.word 0x8b21c009
.word 0xeb29c13f
b.NE Label_752
.word 0xd3407d29
.word 0xb24f3929
.word 0xf9000109
b Label_750
Label_752:
.word 0x9e620120
.word 0x9e660009
.word 0xb24f03e0
.word 0x8b000129
.word 0xf9000109
b Label_750
Label_748:
.word 0xb25047e9
.word 0x8a090029
.word 0xd2800059
.word 0xf2e00039
.word 0xeb19013f
b.EQ Label_751
.word 0xb25047f9
.word 0xeb19013f
b.NE Label_749
Label_751:
.word 0xb27f03e9
.word 0xf8008681
.word 0xaa0803f9
.word 0xf8008680
.word 0xf85b83b1
.word 0xf9002234
.word 0xaa0903e2
.word 0xaa0003e1
.word 0xaa1303e0
.word 0xa9bf7ffe
bl _JS_ToPrimitiveFree_GC
.word 0xa8c17ffe
.word 0xd1002294
.word 0xf85f8e81
.word 0xf8008681
.word 0xf8008680
.word 0xaa0003e2
.word 0xaa1303e0
.word 0xa9bf7ffe
bl _JS_ConcatString_GC
.word 0xa8c17ffe
.word 0xd1002294
.word 0xf85f8e81
.word 0xaa1903e8
.word 0xf9000100
b Label_750
Label_749:
.word 0xf8008688
.word 0xaa0103f9
.word 0xf8008680
.word 0xf85b83b1
.word 0xf9002234
.word 0xaa0003e2
.word 0xaa1303e0
.word 0xa9bf7ffe
bl _prim_js_add_slow_gc
.word 0xa8c17ffe
.word 0xd1002294
.word 0xf102081f
b.NE Label_754
.word 0xf85f8e88
.word 0x91000ad6
.word 0xf85b83b1
.word 0xf9002234
b __exception_handler_entry
Label_754:
.word 0xaa1903e1
.word 0xf85f8e88
.word 0xf9000100
.word 0x38402ec8
.word 0x91000108
.word 0xf8685aa9
.word 0xd61f0120
Label_750:
.word 0x38402ec8
.word 0x91000108
.word 0xf8685aa9
.word 0xd61f0120
.global _dispatch_table_0_148
_dispatch_table_0_148:
.word 0xf85f8e80
.global _dispatch_table_1_148
_dispatch_table_1_148:
.word 0x394006c8
.word 0x8b080f08
.word 0xf9400101
.word 0xf2503c19
.word 0xb24f3be9
.word 0xeb090339
cbnz x25, Label_755
.word 0xf2503c39
.word 0xeb090339
cbnz x25, Label_755
.word 0x93407c00
.word 0x8b21c009
.word 0xeb29c13f
b.NE Label_759
.word 0xd3407d29
.word 0xb24f3929
.word 0xf9000109
b Label_757
Label_759:
.word 0x9e620120
.word 0x9e660009
.word 0xb24f03e0
.word 0x8b000129
.word 0xf9000109
b Label_757
Label_755:
.word 0xb25047e9
.word 0x8a090029
.word 0xd2800059
.word 0xf2e00039
.word 0xeb19013f
b.EQ Label_758
.word 0xb25047f9
.word 0xeb19013f
b.NE Label_756
Label_758:
.word 0xb27f03e9
.word 0xf8008681
.word 0xaa0803f9
.word 0xf8008680
.word 0xf85b83b1
.word 0xf9002234
.word 0xaa0903e2
.word 0xaa0003e1
.word 0xaa1303e0
.word 0xa9bf7ffe
bl _JS_ToPrimitiveFree_GC
.word 0xa8c17ffe
.word 0xd1002294
.word 0xf85f8e81
.word 0xf8008681
.word 0xf8008680
.word 0xaa0003e2
.word 0xaa1303e0
.word 0xa9bf7ffe
bl _JS_ConcatString_GC
.word 0xa8c17ffe
.word 0xd1002294
.word 0xf85f8e81
.word 0xaa1903e8
.word 0xf9000100
b Label_757
Label_756:
.word 0xf8008688
.word 0xaa0103f9
.word 0xf8008680
.word 0xf85b83b1
.word 0xf9002234
.word 0xaa0003e2
.word 0xaa1303e0
.word 0xa9bf7ffe
bl _prim_js_add_slow_gc
.word 0xa8c17ffe
.word 0xd1002294
.word 0xf102081f
b.NE Label_761
.word 0xf85f8e88
.word 0x91000ad6
.word 0xf85b83b1
.word 0xf9002234
b __exception_handler_entry
Label_761:
.word 0xaa1903e1
.word 0xf85f8e88
.word 0xf9000100
.word 0x38402ec8
.word 0x91000108
.word 0xf8685aa9
.word 0xd61f0120
Label_757:
.word 0x38402ec8
.word 0x91000108
.word 0xf8685aa9
.word 0xd61f0120
.global _dispatch_table_2_149
_dispatch_table_2_149:
.word 0xf8008680
.word 0xaa0103e0
.word 0xf85b83b1
.word 0xf9002234
.word 0xf2503c08
.word 0xb24f3be9
.word 0xeb090108
cbnz x8, Label_762
.word 0x2a0003e0
.word 0xb2407fe9
.word 0x4a090000
.word 0xb24f3800
b Label_763
Label_762:
.word 0xf8008680
.word 0xf85b83b1
.word 0xf9002234
.word 0xaa0003e1
.word 0xaa1303e0
.word 0xa9bf7ffe
bl _prim_js_not_slow_gc
.word 0xa8c17ffe
.word 0xd1002294
.word 0xf102081f
b.NE Label_764
.word 0x910006d6
.word 0xf85b83b1
.word 0xf9002234
b __exception_handler_entry
Label_764:
Label_763:
.word 0x38401ec8
.word 0x9103c908
.word 0xf8685aa9
.word 0xd61f0120
.global _dispatch_table_0_149
_dispatch_table_0_149:
.word 0xf85f8e80
.global _dispatch_table_1_149
_dispatch_table_1_149:
.word 0xf2503c08
.word 0xb24f3be9
.word 0xeb090108
cbnz x8, Label_765
.word 0x2a0003e0
.word 0xb2407fe9
.word 0x4a090000
.word 0xb24f3800
b Label_766
Label_765:
.word 0xf8008680
.word 0xf85b83b1
.word 0xf9002234
.word 0xaa0003e1
.word 0xaa1303e0
.word 0xa9bf7ffe
bl _prim_js_not_slow_gc
.word 0xa8c17ffe
.word 0xd1002294
.word 0xf102081f
b.NE Label_767
.word 0x910006d6
.word 0xf85b83b1
.word 0xf9002234
b __exception_handler_entry
Label_767:
Label_766:
.word 0x38401ec8
.word 0x9103c908
.word 0xf8685aa9
.word 0xd61f0120
.global _dispatch_table_2_150
_dispatch_table_2_150:
.word 0xf8008680
.word 0xaa0103e0
.word 0xf85b83b1
.word 0xf9002234
.word 0xf1001c1f
b.NE Label_768
.word 0xb27f07e0
b Label_770
Label_768:
.word 0xf100181f
b.NE Label_769
.word 0xb2400be0
b Label_770
Label_769:
.word 0xf2503c08
.word 0xb24f3be9
.word 0xeb090108
cbnz x8, Label_771
.word 0x2a0003e8
cbz x8, Label_774
.word 0xb27f07e0
b Label_770
Label_774:
.word 0xb2400be0
b Label_770
Label_771:
.word 0xd2800248
.word 0xeb08001f
b.NE Label_772
.word 0xb2400be0
b Label_770
Label_772:
.word 0xb27f03e8
.word 0xeb08001f
b.NE Label_773
.word 0xb2400be0
b Label_770
Label_773:
.word 0xaa0003e1
.word 0xaa1303e0
.word 0xa9bf7ffe
bl _JS_ToBoolFree_GC
.word 0xa8c17ffe
cbz x0, Label_775
.word 0xb27f07e0
.word 0x38401ec8
.word 0x9103c908
.word 0xf8685aa9
.word 0xd61f0120
Label_775:
.word 0xb2400be0
.word 0x38401ec8
.word 0x9103c908
.word 0xf8685aa9
.word 0xd61f0120
Label_770:
.word 0x38401ec8
.word 0x9103c908
.word 0xf8685aa9
.word 0xd61f0120
.global _dispatch_table_0_150
_dispatch_table_0_150:
.word 0xf85f8e80
.global _dispatch_table_1_150
_dispatch_table_1_150:
.word 0xf1001c1f
b.NE Label_776
.word 0xb27f07e0
b Label_778
Label_776:
.word 0xf100181f
b.NE Label_777
.word 0xb2400be0
b Label_778
Label_777:
.word 0xf2503c08
.word 0xb24f3be9
.word 0xeb090108
cbnz x8, Label_779
.word 0x2a0003e8
cbz x8, Label_782
.word 0xb27f07e0
b Label_778
Label_782:
.word 0xb2400be0
b Label_778
Label_779:
.word 0xd2800248
.word 0xeb08001f
b.NE Label_780
.word 0xb2400be0
b Label_778
Label_780:
.word 0xb27f03e8
.word 0xeb08001f
b.NE Label_781
.word 0xb2400be0
b Label_778
Label_781:
.word 0xaa0003e1
.word 0xaa1303e0
.word 0xa9bf7ffe
bl _JS_ToBoolFree_GC
.word 0xa8c17ffe
cbz x0, Label_783
.word 0xb27f07e0
.word 0x38401ec8
.word 0x9103c908
.word 0xf8685aa9
.word 0xd61f0120
Label_783:
.word 0xb2400be0
.word 0x38401ec8
.word 0x9103c908
.word 0xf8685aa9
.word 0xd61f0120
Label_778:
.word 0x38401ec8
.word 0x9103c908
.word 0xf8685aa9
.word 0xd61f0120
.global _dispatch_table_2_151
_dispatch_table_2_151:
.word 0xf8008680
.word 0xaa0103e0
.word 0xf85b83b1
.word 0xf9002234
.word 0xf8008680
.word 0xf85b83b1
.word 0xf9002234
.word 0xaa0003e1
.word 0xaa1303e0
.word 0xa9bf7ffe
bl _js_operator_typeof_gc
.word 0xa8c17ffe
.word 0xb24003e8
.word 0xaa0803e2
.word 0xaa0003e1
.word 0xaa1303e0
.word 0xa9bf7ffe
bl ___JS_AtomToValue_GC
.word 0xa8c17ffe
.word 0xd1002294
.word 0x38401ec8
.word 0x9103c908
.word 0xf8685aa9
.word 0xd61f0120
.global _dispatch_table_0_151
_dispatch_table_0_151:
.word 0xf85f8e80
.global _dispatch_table_1_151
_dispatch_table_1_151:
.word 0xf8008680
.word 0xf85b83b1
.word 0xf9002234
.word 0xaa0003e1
.word 0xaa1303e0
.word 0xa9bf7ffe
bl _js_operator_typeof_gc
.word 0xa8c17ffe
.word 0xb24003e8
.word 0xaa0803e2
.word 0xaa0003e1
.word 0xaa1303e0
.word 0xa9bf7ffe
bl ___JS_AtomToValue_GC
.word 0xa8c17ffe
.word 0xd1002294
.word 0x38401ec8
.word 0x9103c908
.word 0xf8685aa9
.word 0xd61f0120
.global _dispatch_table_0_152
_dispatch_table_0_152:
.word 0xa9ff0680
.word 0xf8008680
.word 0xf8008681
.word 0xf85b83b1
.word 0xf9002234
.word 0xaa0103e2
.word 0xaa0003e1
.word 0xaa1303e0
.word 0xa9bf7ffe
bl _prim_js_operator_delete_gc
.word 0xa8c17ffe
.word 0xd1002294
.word 0xd1002294
.word 0xf102081f
b.NE Label_784
.word 0x910006d6
.word 0xf85b83b1
.word 0xf9002234
b __exception_handler_entry
Label_784:
.word 0x38401ec8
.word 0x9103c908
.word 0xf8685aa9
.word 0xd61f0120
.global _dispatch_table_1_152
_dispatch_table_1_152:
.word 0xaa0003e1
.word 0xf85f8e80
.global _dispatch_table_2_152
_dispatch_table_2_152:
.word 0xf8008680
.word 0xf8008681
.word 0xf85b83b1
.word 0xf9002234
.word 0xaa0103e2
.word 0xaa0003e1
.word 0xaa1303e0
.word 0xa9bf7ffe
bl _prim_js_operator_delete_gc
.word 0xa8c17ffe
.word 0xd1002294
.word 0xd1002294
.word 0xf102081f
b.NE Label_785
.word 0x910006d6
.word 0xf85b83b1
.word 0xf9002234
b __exception_handler_entry
Label_785:
.word 0x38401ec8
.word 0x9103c908
.word 0xf8685aa9
.word 0xd61f0120
.global _dispatch_table_1_153
_dispatch_table_1_153:
.word 0xf8008680
.word 0xf85b83b1
.word 0xf9002234
.word 0xb84012c8
.word 0xf9406e61
.word 0xd2800003
.word 0xf85b83b1
.word 0xf9002234
.word 0xaa0803e2
.word 0xaa1303e0
.word 0xa9bf7ffe
bl _LEPUS_DeleteProperty
.word 0xa8c17ffe
.word 0x7100001f
b.GE Label_786
.word 0x910016d6
.word 0xf85b83b1
.word 0xf9002234
b __exception_handler_entry
Label_786:
.word 0xf100041f
b.NE Label_787
.word 0xb2400be0
b Label_788
Label_787:
.word 0xb27f07e0
Label_788:
.word 0x38405ec8
.word 0x9103c908
.word 0xf8685aa9
.word 0xd61f0120
.global _dispatch_table_2_153
_dispatch_table_2_153:
.word 0xa8810680
.word 0xf85b83b1
.word 0xf9002234
.global _dispatch_table_0_153
_dispatch_table_0_153:
.word 0xb84012c8
.word 0xf9406e61
.word 0xd2800003
.word 0xf85b83b1
.word 0xf9002234
.word 0xaa0803e2
.word 0xaa1303e0
.word 0xa9bf7ffe
bl _LEPUS_DeleteProperty
.word 0xa8c17ffe
.word 0x7100001f
b.GE Label_789
.word 0x910016d6
.word 0xf85b83b1
.word 0xf9002234
b __exception_handler_entry
Label_789:
.word 0xf100041f
b.NE Label_790
.word 0xb2400be0
b Label_791
Label_790:
.word 0xb27f07e0
Label_791:
.word 0x38405ec8
.word 0x9103c908
.word 0xf8685aa9
.word 0xd61f0120
.global _dispatch_table_0_154
_dispatch_table_0_154:
.word 0xa9ff0680
.word 0xb2503fe9
.word 0xeb09001f
b.HS Label_794
.word 0xeb09003f
b.HS Label_794
.word 0xb24f3be8
.word 0xb24f03e9
.word 0xeb08001f
b.LO Label_792
.word 0xeb08003f
b.LO Label_793
.word 0x2a0003e0
.word 0x2a0103e1
.word 0x9b217c00
.word 0xeb20c01f
b.NE Label_796
.word 0xb2407fe8
.word 0x8a080000
.word 0xb24f3800
.word 0x38401ec8
.word 0x9103c908
.word 0xf8685aa9
.word 0xd61f0120
Label_796:
.word 0x9e620000
.word 0x9e660000
.word 0xb24f03e9
.word 0x8b090000
.word 0x38401ec8
.word 0x9103c908
.word 0xf8685aa9
.word 0xd61f0120
Label_792:
.word 0xea08001f
b.EQ Label_794
.word 0xeb08003f
b.LO Label_795
.word 0xcb09000a
.word 0x9e670140
.word 0x1e620021
.word 0x1e610800
.word 0x1e780006
.word 0x1e6200c2
.word 0x9e660004
.word 0x9e660045
.word 0xeb05009f
b.NE Label_797
.word 0xb24f38c0
b Label_798
Label_797:
.word 0x9e660000
.word 0xb24f03e6
.word 0x8b060000
Label_798:
.word 0x38401ec8
.word 0x9103c908
.word 0xf8685aa9
.word 0xd61f0120
Label_795:
.word 0xea08003f
b.EQ Label_794
.word 0xcb09000a
.word 0xcb09002b
.word 0x9e670140
.word 0x9e670161
.word 0x1e610800
.word 0x9e660000
.word 0xb24f03e6
.word 0x8b060000
.word 0x38401ec8
.word 0x9103c908
.word 0xf8685aa9
.word 0xd61f0120
Label_793:
.word 0xea08003f
b.EQ Label_794
.word 0xcb09002a
.word 0x1e620000
.word 0x9e670141
.word 0x1e610800
.word 0x1e780006
.word 0x1e6200c2
.word 0x9e660004
.word 0x9e660045
.word 0xeb05009f
b.NE Label_799
.word 0xb24f38c0
b Label_800
Label_799:
.word 0x9e660000
.word 0xb24f03e6
.word 0x8b060000
Label_800:
.word 0x38401ec8
.word 0x9103c908
.word 0xf8685aa9
.word 0xd61f0120
Label_794:
.word 0xd2801343
.word 0xf8008680
.word 0xf8008681
.word 0xf85b83b1
.word 0xf9002234
.word 0xaa0103e2
.word 0xaa0003e1
.word 0xaa1303e0
.word 0xa9bf7ffe
bl _prim_js_binary_arith_slow_gc
.word 0xa8c17ffe
.word 0xd1002294
.word 0xd1002294
.word 0xf102081f
b.NE Label_801
.word 0x910006d6
.word 0xf85b83b1
.word 0xf9002234
b __exception_handler_entry
Label_801:
.word 0x38401ec8
.word 0x9103c908
.word 0xf8685aa9
.word 0xd61f0120
.global _dispatch_table_1_154
_dispatch_table_1_154:
.word 0xaa0003e1
.word 0xf85f8e80
.global _dispatch_table_2_154
_dispatch_table_2_154:
.word 0xb2503fe9
.word 0xeb09001f
b.HS Label_804
.word 0xeb09003f
b.HS Label_804
.word 0xb24f3be8
.word 0xb24f03e9
.word 0xeb08001f
b.LO Label_802
.word 0xeb08003f
b.LO Label_803
.word 0x2a0003e0
.word 0x2a0103e1
.word 0x9b217c00
.word 0xeb20c01f
b.NE Label_806
.word 0xb2407fe8
.word 0x8a080000
.word 0xb24f3800
.word 0x38401ec8
.word 0x9103c908
.word 0xf8685aa9
.word 0xd61f0120
Label_806:
.word 0x9e620000
.word 0x9e660000
.word 0xb24f03e9
.word 0x8b090000
.word 0x38401ec8
.word 0x9103c908
.word 0xf8685aa9
.word 0xd61f0120
Label_802:
.word 0xea08001f
b.EQ Label_804
.word 0xeb08003f
b.LO Label_805
.word 0xcb09000a
.word 0x9e670140
.word 0x1e620021
.word 0x1e610800
.word 0x1e780006
.word 0x1e6200c2
.word 0x9e660004
.word 0x9e660045
.word 0xeb05009f
b.NE Label_807
.word 0xb24f38c0
b Label_808
Label_807:
.word 0x9e660000
.word 0xb24f03e6
.word 0x8b060000
Label_808:
.word 0x38401ec8
.word 0x9103c908
.word 0xf8685aa9
.word 0xd61f0120
Label_805:
.word 0xea08003f
b.EQ Label_804
.word 0xcb09000a
.word 0xcb09002b
.word 0x9e670140
.word 0x9e670161
.word 0x1e610800
.word 0x9e660000
.word 0xb24f03e6
.word 0x8b060000
.word 0x38401ec8
.word 0x9103c908
.word 0xf8685aa9
.word 0xd61f0120
Label_803:
.word 0xea08003f
b.EQ Label_804
.word 0xcb09002a
.word 0x1e620000
.word 0x9e670141
.word 0x1e610800
.word 0x1e780006
.word 0x1e6200c2
.word 0x9e660004
.word 0x9e660045
.word 0xeb05009f
b.NE Label_809
.word 0xb24f38c0
b Label_810
Label_809:
.word 0x9e660000
.word 0xb24f03e6
.word 0x8b060000
Label_810:
.word 0x38401ec8
.word 0x9103c908
.word 0xf8685aa9
.word 0xd61f0120
Label_804:
.word 0xd2801343
.word 0xf8008680
.word 0xf8008681
.word 0xf85b83b1
.word 0xf9002234
.word 0xaa0103e2
.word 0xaa0003e1
.word 0xaa1303e0
.word 0xa9bf7ffe
bl _prim_js_binary_arith_slow_gc
.word 0xa8c17ffe
.word 0xd1002294
.word 0xd1002294
.word 0xf102081f
b.NE Label_811
.word 0x910006d6
.word 0xf85b83b1
.word 0xf9002234
b __exception_handler_entry
Label_811:
.word 0x38401ec8
.word 0x9103c908
.word 0xf8685aa9
.word 0xd61f0120
.global _dispatch_table_0_155
_dispatch_table_0_155:
.word 0xa9ff0680
.word 0xb2503fe9
.word 0xeb09001f
b.HS Label_814
.word 0xeb09003f
b.HS Label_814
.word 0xb24f3be8
.word 0xb24f03e9
.word 0xeb08001f
b.LO Label_812
.word 0xeb08003f
b.LO Label_813
.word 0x1e620000
.word 0x1e620021
.word 0x1e611800
.word 0x1e780006
.word 0x1e6200c2
.word 0x9e660004
.word 0x9e660045
.word 0xeb05009f
b.NE Label_816
.word 0xb24f38c0
b Label_817
Label_816:
.word 0x9e660000
.word 0xb24f03e6
.word 0x8b060000
Label_817:
.word 0x38401ec8
.word 0x9103c908
.word 0xf8685aa9
.word 0xd61f0120
Label_812:
.word 0xea08001f
b.EQ Label_814
.word 0xeb08003f
b.LO Label_815
.word 0xcb09000a
.word 0x9e670140
.word 0x1e620021
.word 0x1e611800
.word 0x1e780006
.word 0x1e6200c2
.word 0x9e660004
.word 0x9e660045
.word 0xeb05009f
b.NE Label_818
.word 0xb24f38c0
b Label_819
Label_818:
.word 0x9e660000
.word 0xb24f03e6
.word 0x8b060000
Label_819:
.word 0x38401ec8
.word 0x9103c908
.word 0xf8685aa9
.word 0xd61f0120
Label_815:
.word 0xea08003f
b.EQ Label_814
.word 0xcb09000a
.word 0xcb09002b
.word 0x9e670140
.word 0x9e670161
.word 0x1e611800
.word 0x1e780006
.word 0x1e6200c2
.word 0x9e660004
.word 0x9e660045
.word 0xeb05009f
b.NE Label_820
.word 0xb24f38c0
b Label_821
Label_820:
.word 0x9e660000
.word 0xb24f03e6
.word 0x8b060000
Label_821:
.word 0x38401ec8
.word 0x9103c908
.word 0xf8685aa9
.word 0xd61f0120
Label_813:
.word 0xea08003f
b.EQ Label_814
.word 0xcb09002a
.word 0x1e620000
.word 0x9e670141
.word 0x1e611800
.word 0x1e780006
.word 0x1e6200c2
.word 0x9e660004
.word 0x9e660045
.word 0xeb05009f
b.NE Label_822
.word 0xb24f38c0
b Label_823
Label_822:
.word 0x9e660000
.word 0xb24f03e6
.word 0x8b060000
Label_823:
.word 0x38401ec8
.word 0x9103c908
.word 0xf8685aa9
.word 0xd61f0120
Label_814:
.word 0xd2801363
.word 0xf8008680
.word 0xf8008681
.word 0xf85b83b1
.word 0xf9002234
.word 0xaa0103e2
.word 0xaa0003e1
.word 0xaa1303e0
.word 0xa9bf7ffe
bl _prim_js_binary_arith_slow_gc
.word 0xa8c17ffe
.word 0xd1002294
.word 0xd1002294
.word 0xf102081f
b.NE Label_824
.word 0x910006d6
.word 0xf85b83b1
.word 0xf9002234
b __exception_handler_entry
Label_824:
.word 0x38401ec8
.word 0x9103c908
.word 0xf8685aa9
.word 0xd61f0120
.global _dispatch_table_1_155
_dispatch_table_1_155:
.word 0xaa0003e1
.word 0xf85f8e80
.global _dispatch_table_2_155
_dispatch_table_2_155:
.word 0xb2503fe9
.word 0xeb09001f
b.HS Label_827
.word 0xeb09003f
b.HS Label_827
.word 0xb24f3be8
.word 0xb24f03e9
.word 0xeb08001f
b.LO Label_825
.word 0xeb08003f
b.LO Label_826
.word 0x1e620000
.word 0x1e620021
.word 0x1e611800
.word 0x1e780006
.word 0x1e6200c2
.word 0x9e660004
.word 0x9e660045
.word 0xeb05009f
b.NE Label_829
.word 0xb24f38c0
b Label_830
Label_829:
.word 0x9e660000
.word 0xb24f03e6
.word 0x8b060000
Label_830:
.word 0x38401ec8
.word 0x9103c908
.word 0xf8685aa9
.word 0xd61f0120
Label_825:
.word 0xea08001f
b.EQ Label_827
.word 0xeb08003f
b.LO Label_828
.word 0xcb09000a
.word 0x9e670140
.word 0x1e620021
.word 0x1e611800
.word 0x1e780006
.word 0x1e6200c2
.word 0x9e660004
.word 0x9e660045
.word 0xeb05009f
b.NE Label_831
.word 0xb24f38c0
b Label_832
Label_831:
.word 0x9e660000
.word 0xb24f03e6
.word 0x8b060000
Label_832:
.word 0x38401ec8
.word 0x9103c908
.word 0xf8685aa9
.word 0xd61f0120
Label_828:
.word 0xea08003f
b.EQ Label_827
.word 0xcb09000a
.word 0xcb09002b
.word 0x9e670140
.word 0x9e670161
.word 0x1e611800
.word 0x1e780006
.word 0x1e6200c2
.word 0x9e660004
.word 0x9e660045
.word 0xeb05009f
b.NE Label_833
.word 0xb24f38c0
b Label_834
Label_833:
.word 0x9e660000
.word 0xb24f03e6
.word 0x8b060000
Label_834:
.word 0x38401ec8
.word 0x9103c908
.word 0xf8685aa9
.word 0xd61f0120
Label_826:
.word 0xea08003f
b.EQ Label_827
.word 0xcb09002a
.word 0x1e620000
.word 0x9e670141
.word 0x1e611800
.word 0x1e780006
.word 0x1e6200c2
.word 0x9e660004
.word 0x9e660045
.word 0xeb05009f
b.NE Label_835
.word 0xb24f38c0
b Label_836
Label_835:
.word 0x9e660000
.word 0xb24f03e6
.word 0x8b060000
Label_836:
.word 0x38401ec8
.word 0x9103c908
.word 0xf8685aa9
.word 0xd61f0120
Label_827:
.word 0xd2801363
.word 0xf8008680
.word 0xf8008681
.word 0xf85b83b1
.word 0xf9002234
.word 0xaa0103e2
.word 0xaa0003e1
.word 0xaa1303e0
.word 0xa9bf7ffe
bl _prim_js_binary_arith_slow_gc
.word 0xa8c17ffe
.word 0xd1002294
.word 0xd1002294
.word 0xf102081f
b.NE Label_837
.word 0x910006d6
.word 0xf85b83b1
.word 0xf9002234
b __exception_handler_entry
Label_837:
.word 0x38401ec8
.word 0x9103c908
.word 0xf8685aa9
.word 0xd61f0120
.global _dispatch_table_0_156
_dispatch_table_0_156:
.word 0xa9ff0680
.word 0xb2503fe9
.word 0xeb09001f
b.HS Label_840
.word 0xeb09003f
b.HS Label_840
.word 0xb24f3be8
.word 0xb24f03e9
.word 0xeb08001f
b.LO Label_838
.word 0xeb08003f
b.LO Label_839
.word 0xf100001f
b.LT Label_842
.word 0xf100003f
b.LT Label_842
.word 0x1ac10c03
.word 0x1b018060
.word 0xb24f3800
b Label_843
Label_842:
.word 0xd2801383
.word 0xf8008680
.word 0xf8008681
.word 0xf85b83b1
.word 0xf9002234
.word 0xaa0103e2
.word 0xaa0003e1
.word 0xaa1303e0
.word 0xa9bf7ffe
bl _prim_js_binary_arith_slow_gc
.word 0xa8c17ffe
.word 0xd1002294
.word 0xd1002294
.word 0xf102081f
b.NE Label_844
.word 0x910006d6
.word 0xf85b83b1
.word 0xf9002234
b __exception_handler_entry
Label_844:
Label_843:
.word 0x38401ec8
.word 0x9103c908
.word 0xf8685aa9
.word 0xd61f0120
Label_838:
.word 0xea08001f
b.EQ Label_840
.word 0xeb08003f
b.LO Label_841
.word 0xcb09000a
.word 0x9e670140
.word 0x1e620021
.word 0xa9bf7ffe
bl _prim_js_fmod_double_gc
.word 0xa8c17ffe
.word 0x1e780006
.word 0x1e6200c2
.word 0x9e660004
.word 0x9e660045
.word 0xeb05009f
b.NE Label_845
.word 0xb24f38c0
b Label_846
Label_845:
.word 0x9e660000
.word 0xb24f03e6
.word 0x8b060000
Label_846:
.word 0x38401ec8
.word 0x9103c908
.word 0xf8685aa9
.word 0xd61f0120
Label_841:
.word 0xea08003f
b.EQ Label_840
.word 0xcb09000a
.word 0xcb09002b
.word 0x9e670140
.word 0x9e670161
.word 0xa9bf7ffe
bl _prim_js_fmod_double_gc
.word 0xa8c17ffe
.word 0x1e780006
.word 0x1e6200c2
.word 0x9e660004
.word 0x9e660045
.word 0xeb05009f
b.NE Label_847
.word 0xb24f38c0
b Label_848
Label_847:
.word 0x9e660000
.word 0xb24f03e6
.word 0x8b060000
Label_848:
.word 0x38401ec8
.word 0x9103c908
.word 0xf8685aa9
.word 0xd61f0120
Label_839:
.word 0xea08003f
b.EQ Label_840
.word 0xcb09002a
.word 0x1e620000
.word 0x9e670141
.word 0xa9bf7ffe
bl _prim_js_fmod_double_gc
.word 0xa8c17ffe
.word 0x1e780006
.word 0x1e6200c2
.word 0x9e660004
.word 0x9e660045
.word 0xeb05009f
b.NE Label_849
.word 0xb24f38c0
b Label_850
Label_849:
.word 0x9e660000
.word 0xb24f03e6
.word 0x8b060000
Label_850:
.word 0x38401ec8
.word 0x9103c908
.word 0xf8685aa9
.word 0xd61f0120
Label_840:
.word 0xd2801383
.word 0xf8008680
.word 0xf8008681
.word 0xf85b83b1
.word 0xf9002234
.word 0xaa0103e2
.word 0xaa0003e1
.word 0xaa1303e0
.word 0xa9bf7ffe
bl _prim_js_binary_arith_slow_gc
.word 0xa8c17ffe
.word 0xd1002294
.word 0xd1002294
.word 0xf102081f
b.NE Label_851
.word 0x910006d6
.word 0xf85b83b1
.word 0xf9002234
b __exception_handler_entry
Label_851:
.word 0x38401ec8
.word 0x9103c908
.word 0xf8685aa9
.word 0xd61f0120
.global _dispatch_table_1_156
_dispatch_table_1_156:
.word 0xaa0003e1
.word 0xf85f8e80
.global _dispatch_table_2_156
_dispatch_table_2_156:
.word 0xb2503fe9
.word 0xeb09001f
b.HS Label_854
.word 0xeb09003f
b.HS Label_854
.word 0xb24f3be8
.word 0xb24f03e9
.word 0xeb08001f
b.LO Label_852
.word 0xeb08003f
b.LO Label_853
.word 0xf100001f
b.LT Label_856
.word 0xf100003f
b.LT Label_856
.word 0x1ac10c03
.word 0x1b018060
.word 0xb24f3800
b Label_857
Label_856:
.word 0xd2801383
.word 0xf8008680
.word 0xf8008681
.word 0xf85b83b1
.word 0xf9002234
.word 0xaa0103e2
.word 0xaa0003e1
.word 0xaa1303e0
.word 0xa9bf7ffe
bl _prim_js_binary_arith_slow_gc
.word 0xa8c17ffe
.word 0xd1002294
.word 0xd1002294
.word 0xf102081f
b.NE Label_858
.word 0x910006d6
.word 0xf85b83b1
.word 0xf9002234
b __exception_handler_entry
Label_858:
Label_857:
.word 0x38401ec8
.word 0x9103c908
.word 0xf8685aa9
.word 0xd61f0120
Label_852:
.word 0xea08001f
b.EQ Label_854
.word 0xeb08003f
b.LO Label_855
.word 0xcb09000a
.word 0x9e670140
.word 0x1e620021
.word 0xa9bf7ffe
bl _prim_js_fmod_double_gc
.word 0xa8c17ffe
.word 0x1e780006
.word 0x1e6200c2
.word 0x9e660004
.word 0x9e660045
.word 0xeb05009f
b.NE Label_859
.word 0xb24f38c0
b Label_860
Label_859:
.word 0x9e660000
.word 0xb24f03e6
.word 0x8b060000
Label_860:
.word 0x38401ec8
.word 0x9103c908
.word 0xf8685aa9
.word 0xd61f0120
Label_855:
.word 0xea08003f
b.EQ Label_854
.word 0xcb09000a
.word 0xcb09002b
.word 0x9e670140
.word 0x9e670161
.word 0xa9bf7ffe
bl _prim_js_fmod_double_gc
.word 0xa8c17ffe
.word 0x1e780006
.word 0x1e6200c2
.word 0x9e660004
.word 0x9e660045
.word 0xeb05009f
b.NE Label_861
.word 0xb24f38c0
b Label_862
Label_861:
.word 0x9e660000
.word 0xb24f03e6
.word 0x8b060000
Label_862:
.word 0x38401ec8
.word 0x9103c908
.word 0xf8685aa9
.word 0xd61f0120
Label_853:
.word 0xea08003f
b.EQ Label_854
.word 0xcb09002a
.word 0x1e620000
.word 0x9e670141
.word 0xa9bf7ffe
bl _prim_js_fmod_double_gc
.word 0xa8c17ffe
.word 0x1e780006
.word 0x1e6200c2
.word 0x9e660004
.word 0x9e660045
.word 0xeb05009f
b.NE Label_863
.word 0xb24f38c0
b Label_864
Label_863:
.word 0x9e660000
.word 0xb24f03e6
.word 0x8b060000
Label_864:
.word 0x38401ec8
.word 0x9103c908
.word 0xf8685aa9
.word 0xd61f0120
Label_854:
.word 0xd2801383
.word 0xf8008680
.word 0xf8008681
.word 0xf85b83b1
.word 0xf9002234
.word 0xaa0103e2
.word 0xaa0003e1
.word 0xaa1303e0
.word 0xa9bf7ffe
bl _prim_js_binary_arith_slow_gc
.word 0xa8c17ffe
.word 0xd1002294
.word 0xd1002294
.word 0xf102081f
b.NE Label_865
.word 0x910006d6
.word 0xf85b83b1
.word 0xf9002234
b __exception_handler_entry
Label_865:
.word 0x38401ec8
.word 0x9103c908
.word 0xf8685aa9
.word 0xd61f0120
.global _dispatch_table_0_157
_dispatch_table_0_157:
.word 0xa9ff0680
.word 0xb2503fe9
.word 0xeb09001f
b.HS Label_868
.word 0xeb09003f
b.HS Label_868
.word 0xb24f3be8
.word 0xb24f03e9
.word 0xeb08001f
b.LO Label_866
.word 0xeb08003f
b.LO Label_867
.word 0x93407c00
.word 0x8b21c000
.word 0xeb20c01f
b.NE Label_870
.word 0xd3407c00
.word 0xb24f3800
.word 0x38401ec8
.word 0x9103c908
.word 0xf8685aa9
.word 0xd61f0120
Label_870:
.word 0x9e620000
.word 0x9e660000
.word 0xb24f03e9
.word 0x8b090000
.word 0x38401ec8
.word 0x9103c908
.word 0xf8685aa9
.word 0xd61f0120
Label_866:
.word 0xea08001f
b.EQ Label_868
.word 0xeb08003f
b.LO Label_869
.word 0xcb09000a
.word 0x9e670140
.word 0x1e620021
.word 0x1e612800
.word 0x1e780006
.word 0x1e6200c2
.word 0x9e660004
.word 0x9e660045
.word 0xeb05009f
b.NE Label_871
.word 0xb24f38c0
b Label_872
Label_871:
.word 0x9e660000
.word 0xb24f03e6
.word 0x8b060000
Label_872:
.word 0x38401ec8
.word 0x9103c908
.word 0xf8685aa9
.word 0xd61f0120
Label_869:
.word 0xea08003f
b.EQ Label_868
.word 0xcb09000a
.word 0xcb09002b
.word 0x9e670140
.word 0x9e670161
.word 0x1e612800
.word 0x9e660000
.word 0xb24f03e6
.word 0x8b060000
.word 0x38401ec8
.word 0x9103c908
.word 0xf8685aa9
.word 0xd61f0120
Label_867:
.word 0xea08003f
b.EQ Label_868
.word 0xcb09002a
.word 0x1e620000
.word 0x9e670141
.word 0x1e612800
.word 0x1e780006
.word 0x1e6200c2
.word 0x9e660004
.word 0x9e660045
.word 0xeb05009f
b.NE Label_873
.word 0xb24f38c0
b Label_874
Label_873:
.word 0x9e660000
.word 0xb24f03e6
.word 0x8b060000
Label_874:
.word 0x38401ec8
.word 0x9103c908
.word 0xf8685aa9
.word 0xd61f0120
Label_868:
.word 0xb25047e9
.word 0xea090019
.word 0xd2800048
.word 0xf2e00028
.word 0xeb08033f
b.EQ Label_876
.word 0xb25047e8
.word 0xeb08033f
b.NE Label_875
Label_876:
.word 0xea090039
.word 0xd2800048
.word 0xf2e00028
.word 0xeb08033f
b.EQ Label_877
.word 0xb25047e8
.word 0xeb08033f
b.NE Label_875
Label_877:
.word 0xf8008680
.word 0xf8008681
.word 0xf85b83b1
.word 0xf9002234
.word 0xaa0103e2
.word 0xaa0003e1
.word 0xaa1303e0
.word 0xa9bf7ffe
bl _JS_ConcatString_GC
.word 0xa8c17ffe
.word 0xd1002294
.word 0xd1002294
.word 0x38401ec8
.word 0x9103c908
.word 0xf8685aa9
.word 0xd61f0120
Label_875:
.word 0xf8008680
.word 0xf8008681
.word 0xf85b83b1
.word 0xf9002234
.word 0xaa0103e2
.word 0xaa0003e1
.word 0xaa1303e0
.word 0xa9bf7ffe
bl _prim_js_add_slow_gc
.word 0xa8c17ffe
.word 0xd1002294
.word 0xd1002294
.word 0xf102081f
b.NE Label_878
.word 0x910006d6
.word 0xf85b83b1
.word 0xf9002234
b __exception_handler_entry
Label_878:
.word 0x38401ec8
.word 0x9103c908
.word 0xf8685aa9
.word 0xd61f0120
.global _dispatch_table_1_157
_dispatch_table_1_157:
.word 0xaa0003e1
.word 0xf85f8e80
.global _dispatch_table_2_157
_dispatch_table_2_157:
.word 0xb2503fe9
.word 0xeb09001f
b.HS Label_881
.word 0xeb09003f
b.HS Label_881
.word 0xb24f3be8
.word 0xb24f03e9
.word 0xeb08001f
b.LO Label_879
.word 0xeb08003f
b.LO Label_880
.word 0x93407c00
.word 0x8b21c000
.word 0xeb20c01f
b.NE Label_883
.word 0xd3407c00
.word 0xb24f3800
.word 0x38401ec8
.word 0x9103c908
.word 0xf8685aa9
.word 0xd61f0120
Label_883:
.word 0x9e620000
.word 0x9e660000
.word 0xb24f03e9
.word 0x8b090000
.word 0x38401ec8
.word 0x9103c908
.word 0xf8685aa9
.word 0xd61f0120
Label_879:
.word 0xea08001f
b.EQ Label_881
.word 0xeb08003f
b.LO Label_882
.word 0xcb09000a
.word 0x9e670140
.word 0x1e620021
.word 0x1e612800
.word 0x1e780006
.word 0x1e6200c2
.word 0x9e660004
.word 0x9e660045
.word 0xeb05009f
b.NE Label_884
.word 0xb24f38c0
b Label_885
Label_884:
.word 0x9e660000
.word 0xb24f03e6
.word 0x8b060000
Label_885:
.word 0x38401ec8
.word 0x9103c908
.word 0xf8685aa9
.word 0xd61f0120
Label_882:
.word 0xea08003f
b.EQ Label_881
.word 0xcb09000a
.word 0xcb09002b
.word 0x9e670140
.word 0x9e670161
.word 0x1e612800
.word 0x9e660000
.word 0xb24f03e6
.word 0x8b060000
.word 0x38401ec8
.word 0x9103c908
.word 0xf8685aa9
.word 0xd61f0120
Label_880:
.word 0xea08003f
b.EQ Label_881
.word 0xcb09002a
.word 0x1e620000
.word 0x9e670141
.word 0x1e612800
.word 0x1e780006
.word 0x1e6200c2
.word 0x9e660004
.word 0x9e660045
.word 0xeb05009f
b.NE Label_886
.word 0xb24f38c0
b Label_887
Label_886:
.word 0x9e660000
.word 0xb24f03e6
.word 0x8b060000
Label_887:
.word 0x38401ec8
.word 0x9103c908
.word 0xf8685aa9
.word 0xd61f0120
Label_881:
.word 0xb25047e9
.word 0xea090019
.word 0xd2800048
.word 0xf2e00028
.word 0xeb08033f
b.EQ Label_889
.word 0xb25047e8
.word 0xeb08033f
b.NE Label_888
Label_889:
.word 0xea090039
.word 0xd2800048
.word 0xf2e00028
.word 0xeb08033f
b.EQ Label_890
.word 0xb25047e8
.word 0xeb08033f
b.NE Label_888
Label_890:
.word 0xf8008680
.word 0xf8008681
.word 0xf85b83b1
.word 0xf9002234
.word 0xaa0103e2
.word 0xaa0003e1
.word 0xaa1303e0
.word 0xa9bf7ffe
bl _JS_ConcatString_GC
.word 0xa8c17ffe
.word 0xd1002294
.word 0xd1002294
.word 0x38401ec8
.word 0x9103c908
.word 0xf8685aa9
.word 0xd61f0120
Label_888:
.word 0xf8008680
.word 0xf8008681
.word 0xf85b83b1
.word 0xf9002234
.word 0xaa0103e2
.word 0xaa0003e1
.word 0xaa1303e0
.word 0xa9bf7ffe
bl _prim_js_add_slow_gc
.word 0xa8c17ffe
.word 0xd1002294
.word 0xd1002294
.word 0xf102081f
b.NE Label_891
.word 0x910006d6
.word 0xf85b83b1
.word 0xf9002234
b __exception_handler_entry
Label_891:
.word 0x38401ec8
.word 0x9103c908
.word 0xf8685aa9
.word 0xd61f0120
.global _dispatch_table_0_158
_dispatch_table_0_158:
.word 0xa9ff0680
.word 0xb2503fe9
.word 0xeb09001f
b.HS Label_894
.word 0xeb09003f
b.HS Label_894
.word 0xb24f3be8
.word 0xb24f03e9
.word 0xeb08001f
b.LO Label_892
.word 0xeb08003f
b.LO Label_893
.word 0x93407c00
.word 0xeb21c000
.word 0xeb20c01f
b.NE Label_896
.word 0xd3407c00
.word 0xb24f3800
.word 0x38401ec8
.word 0x9103c908
.word 0xf8685aa9
.word 0xd61f0120
Label_896:
.word 0x9e620000
.word 0x9e660000
.word 0xb24f03e9
.word 0x8b090000
.word 0x38401ec8
.word 0x9103c908
.word 0xf8685aa9
.word 0xd61f0120
Label_892:
.word 0xea08001f
b.EQ Label_894
.word 0xeb08003f
b.LO Label_895
.word 0xcb09000a
.word 0x9e670140
.word 0x1e620021
.word 0x1e613800
.word 0x1e780006
.word 0x1e6200c2
.word 0x9e660004
.word 0x9e660045
.word 0xeb05009f
b.NE Label_897
.word 0xb24f38c0
b Label_898
Label_897:
.word 0x9e660000
.word 0xb24f03e6
.word 0x8b060000
Label_898:
.word 0x38401ec8
.word 0x9103c908
.word 0xf8685aa9
.word 0xd61f0120
Label_895:
.word 0xea08003f
b.EQ Label_894
.word 0xcb09000a
.word 0xcb09002b
.word 0x9e670140
.word 0x9e670161
.word 0x1e613800
.word 0x9e660000
.word 0xb24f03e6
.word 0x8b060000
.word 0x38401ec8
.word 0x9103c908
.word 0xf8685aa9
.word 0xd61f0120
Label_893:
.word 0xea08003f
b.EQ Label_894
.word 0xcb09002a
.word 0x1e620000
.word 0x9e670141
.word 0x1e613800
.word 0x1e780006
.word 0x1e6200c2
.word 0x9e660004
.word 0x9e660045
.word 0xeb05009f
b.NE Label_899
.word 0xb24f38c0
b Label_900
Label_899:
.word 0x9e660000
.word 0xb24f03e6
.word 0x8b060000
Label_900:
.word 0x38401ec8
.word 0x9103c908
.word 0xf8685aa9
.word 0xd61f0120
Label_894:
.word 0xd28013c3
.word 0xf8008680
.word 0xf8008681
.word 0xf85b83b1
.word 0xf9002234
.word 0xaa0103e2
.word 0xaa0003e1
.word 0xaa1303e0
.word 0xa9bf7ffe
bl _prim_js_binary_arith_slow_gc
.word 0xa8c17ffe
.word 0xd1002294
.word 0xd1002294
.word 0xf102081f
b.NE Label_901
.word 0x910006d6
.word 0xf85b83b1
.word 0xf9002234
b __exception_handler_entry
Label_901:
.word 0x38401ec8
.word 0x9103c908
.word 0xf8685aa9
.word 0xd61f0120
.global _dispatch_table_1_158
_dispatch_table_1_158:
.word 0xaa0003e1
.word 0xf85f8e80
.global _dispatch_table_2_158
_dispatch_table_2_158:
.word 0xb2503fe9
.word 0xeb09001f
b.HS Label_904
.word 0xeb09003f
b.HS Label_904
.word 0xb24f3be8
.word 0xb24f03e9
.word 0xeb08001f
b.LO Label_902
.word 0xeb08003f
b.LO Label_903
.word 0x93407c00
.word 0xeb21c000
.word 0xeb20c01f
b.NE Label_906
.word 0xd3407c00
.word 0xb24f3800
.word 0x38401ec8
.word 0x9103c908
.word 0xf8685aa9
.word 0xd61f0120
Label_906:
.word 0x9e620000
.word 0x9e660000
.word 0xb24f03e9
.word 0x8b090000
.word 0x38401ec8
.word 0x9103c908
.word 0xf8685aa9
.word 0xd61f0120
Label_902:
.word 0xea08001f
b.EQ Label_904
.word 0xeb08003f
b.LO Label_905
.word 0xcb09000a
.word 0x9e670140
.word 0x1e620021
.word 0x1e613800
.word 0x1e780006
.word 0x1e6200c2
.word 0x9e660004
.word 0x9e660045
.word 0xeb05009f
b.NE Label_907
.word 0xb24f38c0
b Label_908
Label_907:
.word 0x9e660000
.word 0xb24f03e6
.word 0x8b060000
Label_908:
.word 0x38401ec8
.word 0x9103c908
.word 0xf8685aa9
.word 0xd61f0120
Label_905:
.word 0xea08003f
b.EQ Label_904
.word 0xcb09000a
.word 0xcb09002b
.word 0x9e670140
.word 0x9e670161
.word 0x1e613800
.word 0x9e660000
.word 0xb24f03e6
.word 0x8b060000
.word 0x38401ec8
.word 0x9103c908
.word 0xf8685aa9
.word 0xd61f0120
Label_903:
.word 0xea08003f
b.EQ Label_904
.word 0xcb09002a
.word 0x1e620000
.word 0x9e670141
.word 0x1e613800
.word 0x1e780006
.word 0x1e6200c2
.word 0x9e660004
.word 0x9e660045
.word 0xeb05009f
b.NE Label_909
.word 0xb24f38c0
b Label_910
Label_909:
.word 0x9e660000
.word 0xb24f03e6
.word 0x8b060000
Label_910:
.word 0x38401ec8
.word 0x9103c908
.word 0xf8685aa9
.word 0xd61f0120
Label_904:
.word 0xd28013c3
.word 0xf8008680
.word 0xf8008681
.word 0xf85b83b1
.word 0xf9002234
.word 0xaa0103e2
.word 0xaa0003e1
.word 0xaa1303e0
.word 0xa9bf7ffe
bl _prim_js_binary_arith_slow_gc
.word 0xa8c17ffe
.word 0xd1002294
.word 0xd1002294
.word 0xf102081f
b.NE Label_911
.word 0x910006d6
.word 0xf85b83b1
.word 0xf9002234
b __exception_handler_entry
Label_911:
.word 0x38401ec8
.word 0x9103c908
.word 0xf8685aa9
.word 0xd61f0120
.global _dispatch_table_0_159
_dispatch_table_0_159:
.word 0xa9ff0680
.word 0xd28013e3
.word 0xf8008680
.word 0xf8008681
.word 0xf85b83b1
.word 0xf9002234
.word 0xaa0103e2
.word 0xaa0003e1
.word 0xaa1303e0
.word 0xa9bf7ffe
bl _prim_js_binary_arith_slow_gc
.word 0xa8c17ffe
.word 0xd1002294
.word 0xd1002294
.word 0xf102081f
b.NE Label_912
.word 0x910006d6
.word 0xf85b83b1
.word 0xf9002234
b __exception_handler_entry
Label_912:
.word 0x38401ec8
.word 0x9103c908
.word 0xf8685aa9
.word 0xd61f0120
.global _dispatch_table_1_159
_dispatch_table_1_159:
.word 0xaa0003e1
.word 0xf85f8e80
.global _dispatch_table_2_159
_dispatch_table_2_159:
.word 0xd28013e3
.word 0xf8008680
.word 0xf8008681
.word 0xf85b83b1
.word 0xf9002234
.word 0xaa0103e2
.word 0xaa0003e1
.word 0xaa1303e0
.word 0xa9bf7ffe
bl _prim_js_binary_arith_slow_gc
.word 0xa8c17ffe
.word 0xd1002294
.word 0xd1002294
.word 0xf102081f
b.NE Label_913
.word 0x910006d6
.word 0xf85b83b1
.word 0xf9002234
b __exception_handler_entry
Label_913:
.word 0x38401ec8
.word 0x9103c908
.word 0xf8685aa9
.word 0xd61f0120
.global _dispatch_table_0_160
_dispatch_table_0_160:
.word 0xa9ff0680
.word 0xf2503c08
.word 0xb24f3be9
.word 0xeb090108
cbnz x8, Label_914
.word 0xf2503c28
.word 0xb24f3be9
.word 0xeb090108
cbnz x8, Label_914
.word 0x1ac12000
.word 0xb24f3800
.word 0x38401ec8
.word 0x9103c908
.word 0xf8685aa9
.word 0xd61f0120
Label_914:
.word 0xd2801403
.word 0xf8008680
.word 0xf8008681
.word 0xf85b83b1
.word 0xf9002234
.word 0xaa0103e2
.word 0xaa0003e1
.word 0xaa1303e0
.word 0xa9bf7ffe
bl _prim_js_binary_logic_slow_gc
.word 0xa8c17ffe
.word 0xd1002294
.word 0xd1002294
.word 0xf102081f
b.NE Label_915
.word 0x910006d6
.word 0xf85b83b1
.word 0xf9002234
b __exception_handler_entry
Label_915:
.word 0x38401ec8
.word 0x9103c908
.word 0xf8685aa9
.word 0xd61f0120
.global _dispatch_table_1_160
_dispatch_table_1_160:
.word 0xaa0003e1
.word 0xf85f8e80
.global _dispatch_table_2_160
_dispatch_table_2_160:
.word 0xf2503c08
.word 0xb24f3be9
.word 0xeb090108
cbnz x8, Label_916
.word 0xf2503c28
.word 0xb24f3be9
.word 0xeb090108
cbnz x8, Label_916
.word 0x1ac12000
.word 0xb24f3800
.word 0x38401ec8
.word 0x9103c908
.word 0xf8685aa9
.word 0xd61f0120
Label_916:
.word 0xd2801403
.word 0xf8008680
.word 0xf8008681
.word 0xf85b83b1
.word 0xf9002234
.word 0xaa0103e2
.word 0xaa0003e1
.word 0xaa1303e0
.word 0xa9bf7ffe
bl _prim_js_binary_logic_slow_gc
.word 0xa8c17ffe
.word 0xd1002294
.word 0xd1002294
.word 0xf102081f
b.NE Label_917
.word 0x910006d6
.word 0xf85b83b1
.word 0xf9002234
b __exception_handler_entry
Label_917:
.word 0x38401ec8
.word 0x9103c908
.word 0xf8685aa9
.word 0xd61f0120
.global _dispatch_table_0_161
_dispatch_table_0_161:
.word 0xa9ff0680
.word 0xf2503c08
.word 0xb24f3be9
.word 0xeb090108
cbnz x8, Label_918
.word 0xf2503c28
.word 0xb24f3be9
.word 0xeb090108
cbnz x8, Label_918
.word 0x1ac12800
.word 0xb24f3800
.word 0x38401ec8
.word 0x9103c908
.word 0xf8685aa9
.word 0xd61f0120
Label_918:
.word 0xd2801423
.word 0xf8008680
.word 0xf8008681
.word 0xf85b83b1
.word 0xf9002234
.word 0xaa0103e2
.word 0xaa0003e1
.word 0xaa1303e0
.word 0xa9bf7ffe
bl _prim_js_binary_logic_slow_gc
.word 0xa8c17ffe
.word 0xd1002294
.word 0xd1002294
.word 0xf102081f
b.NE Label_919
.word 0x910006d6
.word 0xf85b83b1
.word 0xf9002234
b __exception_handler_entry
Label_919:
.word 0x38401ec8
.word 0x9103c908
.word 0xf8685aa9
.word 0xd61f0120
.global _dispatch_table_1_161
_dispatch_table_1_161:
.word 0xaa0003e1
.word 0xf85f8e80
.global _dispatch_table_2_161
_dispatch_table_2_161:
.word 0xf2503c08
.word 0xb24f3be9
.word 0xeb090108
cbnz x8, Label_920
.word 0xf2503c28
.word 0xb24f3be9
.word 0xeb090108
cbnz x8, Label_920
.word 0x1ac12800
.word 0xb24f3800
.word 0x38401ec8
.word 0x9103c908
.word 0xf8685aa9
.word 0xd61f0120
Label_920:
.word 0xd2801423
.word 0xf8008680
.word 0xf8008681
.word 0xf85b83b1
.word 0xf9002234
.word 0xaa0103e2
.word 0xaa0003e1
.word 0xaa1303e0
.word 0xa9bf7ffe
bl _prim_js_binary_logic_slow_gc
.word 0xa8c17ffe
.word 0xd1002294
.word 0xd1002294
.word 0xf102081f
b.NE Label_921
.word 0x910006d6
.word 0xf85b83b1
.word 0xf9002234
b __exception_handler_entry
Label_921:
.word 0x38401ec8
.word 0x9103c908
.word 0xf8685aa9
.word 0xd61f0120
.global _dispatch_table_0_162
_dispatch_table_0_162:
.word 0xa9ff0680
.word 0xf2503c08
.word 0xb24f3be9
.word 0xeb090108
cbnz x8, Label_922
.word 0xf2503c28
.word 0xb24f3be9
.word 0xeb090108
cbnz x8, Label_922
.word 0x1ac12409
.word 0xb2407be8
.word 0x6b09011f
b.HS Label_923
.word 0xf8008680
.word 0xf8008681
.word 0xf85b83b1
.word 0xf9002234
.word 0xaa0103e2
.word 0xaa0003e1
.word 0xaa1303e0
.word 0xa9bf7ffe
bl _prim_js_shr_slow_gc
.word 0xa8c17ffe
.word 0xd1002294
.word 0xd1002294
b Label_924
Label_923:
.word 0xb24f3920
Label_924:
.word 0x38401ec8
.word 0x9103c908
.word 0xf8685aa9
.word 0xd61f0120
Label_922:
.word 0xf8008680
.word 0xf8008681
.word 0xf85b83b1
.word 0xf9002234
.word 0xaa0103e2
.word 0xaa0003e1
.word 0xaa1303e0
.word 0xa9bf7ffe
bl _prim_js_shr_slow_gc
.word 0xa8c17ffe
.word 0xd1002294
.word 0xd1002294
.word 0xf102081f
b.NE Label_925
.word 0x910006d6
.word 0xf85b83b1
.word 0xf9002234
b __exception_handler_entry
Label_925:
.word 0x38401ec8
.word 0x9103c908
.word 0xf8685aa9
.word 0xd61f0120
.global _dispatch_table_1_162
_dispatch_table_1_162:
.word 0xaa0003e1
.word 0xf85f8e80
.global _dispatch_table_2_162
_dispatch_table_2_162:
.word 0xf2503c08
.word 0xb24f3be9
.word 0xeb090108
cbnz x8, Label_926
.word 0xf2503c28
.word 0xb24f3be9
.word 0xeb090108
cbnz x8, Label_926
.word 0x1ac12409
.word 0xb2407be8
.word 0x6b09011f
b.HS Label_927
.word 0xf8008680
.word 0xf8008681
.word 0xf85b83b1
.word 0xf9002234
.word 0xaa0103e2
.word 0xaa0003e1
.word 0xaa1303e0
.word 0xa9bf7ffe
bl _prim_js_shr_slow_gc
.word 0xa8c17ffe
.word 0xd1002294
.word 0xd1002294
b Label_928
Label_927:
.word 0xb24f3920
Label_928:
.word 0x38401ec8
.word 0x9103c908
.word 0xf8685aa9
.word 0xd61f0120
Label_926:
.word 0xf8008680
.word 0xf8008681
.word 0xf85b83b1
.word 0xf9002234
.word 0xaa0103e2
.word 0xaa0003e1
.word 0xaa1303e0
.word 0xa9bf7ffe
bl _prim_js_shr_slow_gc
.word 0xa8c17ffe
.word 0xd1002294
.word 0xd1002294
.word 0xf102081f
b.NE Label_929
.word 0x910006d6
.word 0xf85b83b1
.word 0xf9002234
b __exception_handler_entry
Label_929:
.word 0x38401ec8
.word 0x9103c908
.word 0xf8685aa9
.word 0xd61f0120
.global _dispatch_table_0_163
_dispatch_table_0_163:
.word 0xa9ff0680
.word 0xb2503fe9
.word 0xeb09001f
b.HS Label_933
.word 0xeb09003f
b.HS Label_933
.word 0xb24f3be8
.word 0xb24f03e9
.word 0xeb08001f
b.LO Label_930
.word 0xeb08003f
b.LO Label_931
.word 0x6b010000
b.GE Label_934
.word 0xb2400be0
.word 0x38401ec8
.word 0x9103c908
.word 0xf8685aa9
.word 0xd61f0120
Label_934:
.word 0xb27f07e0
.word 0x38401ec8
.word 0x9103c908
.word 0xf8685aa9
.word 0xd61f0120
Label_930:
.word 0xea08001f
b.EQ Label_933
.word 0xeb08003f
b.LO Label_932
.word 0xcb09000a
.word 0x9e670140
.word 0x1e620021
.word 0xd2efff4a
.word 0xeb0a001f
b.EQ Label_933
.word 0xeb0a003f
b.EQ Label_933
.word 0xd2ffff4a
.word 0xeb0a001f
b.EQ Label_933
.word 0xeb0a003f
b.EQ Label_933
.word 0x1e612000
b.GE Label_935
.word 0xb2400be0
.word 0x38401ec8
.word 0x9103c908
.word 0xf8685aa9
.word 0xd61f0120
Label_935:
.word 0xb27f07e0
.word 0x38401ec8
.word 0x9103c908
.word 0xf8685aa9
.word 0xd61f0120
Label_932:
.word 0xea08003f
b.EQ Label_933
.word 0xcb09000a
.word 0xcb09002b
.word 0x9e670140
.word 0x9e670161
.word 0xd2efff4a
.word 0xeb0a001f
b.EQ Label_933
.word 0xeb0a003f
b.EQ Label_933
.word 0xd2ffff4a
.word 0xeb0a001f
b.EQ Label_933
.word 0xeb0a003f
b.EQ Label_933
.word 0x1e612000
b.GE Label_936
.word 0xb2400be0
.word 0x38401ec8
.word 0x9103c908
.word 0xf8685aa9
.word 0xd61f0120
Label_936:
.word 0xb27f07e0
.word 0x38401ec8
.word 0x9103c908
.word 0xf8685aa9
.word 0xd61f0120
Label_931:
.word 0xea08003f
b.EQ Label_933
.word 0xcb09002a
.word 0x1e620000
.word 0x9e670141
.word 0xd2efff4a
.word 0xeb0a001f
b.EQ Label_933
.word 0xeb0a003f
b.EQ Label_933
.word 0xd2ffff4a
.word 0xeb0a001f
b.EQ Label_933
.word 0xeb0a003f
b.EQ Label_933
.word 0x1e612000
b.GE Label_937
.word 0xb2400be0
.word 0x38401ec8
.word 0x9103c908
.word 0xf8685aa9
.word 0xd61f0120
Label_937:
.word 0xb27f07e0
.word 0x38401ec8
.word 0x9103c908
.word 0xf8685aa9
.word 0xd61f0120
Label_933:
.word 0xd2801463
.word 0xf8008680
.word 0xf8008681
.word 0xf85b83b1
.word 0xf9002234
.word 0xaa0103e2
.word 0xaa0003e1
.word 0xaa1303e0
.word 0xa9bf7ffe
bl _prim_js_relation_slow_gc
.word 0xa8c17ffe
.word 0xd1002294
.word 0xd1002294
.word 0xf102081f
b.NE Label_938
.word 0x910006d6
.word 0xf85b83b1
.word 0xf9002234
b __exception_handler_entry
Label_938:
.word 0x38401ec8
.word 0x9103c908
.word 0xf8685aa9
.word 0xd61f0120
.global _dispatch_table_1_163
_dispatch_table_1_163:
.word 0xaa0003e1
.word 0xf85f8e80
.global _dispatch_table_2_163
_dispatch_table_2_163:
.word 0xb2503fe9
.word 0xeb09001f
b.HS Label_942
.word 0xeb09003f
b.HS Label_942
.word 0xb24f3be8
.word 0xb24f03e9
.word 0xeb08001f
b.LO Label_939
.word 0xeb08003f
b.LO Label_940
.word 0x6b010000
b.GE Label_943
.word 0xb2400be0
.word 0x38401ec8
.word 0x9103c908
.word 0xf8685aa9
.word 0xd61f0120
Label_943:
.word 0xb27f07e0
.word 0x38401ec8
.word 0x9103c908
.word 0xf8685aa9
.word 0xd61f0120
Label_939:
.word 0xea08001f
b.EQ Label_942
.word 0xeb08003f
b.LO Label_941
.word 0xcb09000a
.word 0x9e670140
.word 0x1e620021
.word 0xd2efff4a
.word 0xeb0a001f
b.EQ Label_942
.word 0xeb0a003f
b.EQ Label_942
.word 0xd2ffff4a
.word 0xeb0a001f
b.EQ Label_942
.word 0xeb0a003f
b.EQ Label_942
.word 0x1e612000
b.GE Label_944
.word 0xb2400be0
.word 0x38401ec8
.word 0x9103c908
.word 0xf8685aa9
.word 0xd61f0120
Label_944:
.word 0xb27f07e0
.word 0x38401ec8
.word 0x9103c908
.word 0xf8685aa9
.word 0xd61f0120
Label_941:
.word 0xea08003f
b.EQ Label_942
.word 0xcb09000a
.word 0xcb09002b
.word 0x9e670140
.word 0x9e670161
.word 0xd2efff4a
.word 0xeb0a001f
b.EQ Label_942
.word 0xeb0a003f
b.EQ Label_942
.word 0xd2ffff4a
.word 0xeb0a001f
b.EQ Label_942
.word 0xeb0a003f
b.EQ Label_942
.word 0x1e612000
b.GE Label_945
.word 0xb2400be0
.word 0x38401ec8
.word 0x9103c908
.word 0xf8685aa9
.word 0xd61f0120
Label_945:
.word 0xb27f07e0
